Archive member included because of file (symbol)

../../../../../ports/arm-cortex/vanilla/gnu/spy\libqf_cortex-m3.a(qa_fifo.o)
                              spy/philo.o (QActive::postFIFO(QEvent const*))
../../../../../ports/arm-cortex/vanilla/gnu/spy\libqf_cortex-m3.a(qa_sub.o)
                              spy/philo.o (QActive::subscribe(unsigned char) const)
../../../../../ports/arm-cortex/vanilla/gnu/spy\libqf_cortex-m3.a(qf_act.o)
                              ../../../../../ports/arm-cortex/vanilla/gnu/spy\libqf_cortex-m3.a(qa_sub.o) (QF::active_)
../../../../../ports/arm-cortex/vanilla/gnu/spy\libqf_cortex-m3.a(qf_new.o)
                              spy/philo.o (QF::new_(unsigned short, unsigned char))
../../../../../ports/arm-cortex/vanilla/gnu/spy\libqf_cortex-m3.a(qf_pool.o)
                              spy/main.o (QF::poolInit(void*, unsigned long, unsigned short))
../../../../../ports/arm-cortex/vanilla/gnu/spy\libqf_cortex-m3.a(qf_psini.o)
                              spy/main.o (QF::psInit(QSubscrList*, unsigned char))
../../../../../ports/arm-cortex/vanilla/gnu/spy\libqf_cortex-m3.a(qf_pspub.o)
                              spy/philo.o (QF::publish(QEvent const*))
../../../../../ports/arm-cortex/vanilla/gnu/spy\libqf_cortex-m3.a(qf_pwr2.o)
                              ../../../../../ports/arm-cortex/vanilla/gnu/spy\libqf_cortex-m3.a(qa_fifo.o) (QF_pwr2Lkup)
../../../../../ports/arm-cortex/vanilla/gnu/spy\libqf_cortex-m3.a(qf_tick.o)
                              spy/bsp.o (QF::tick())
../../../../../ports/arm-cortex/vanilla/gnu/spy\libqf_cortex-m3.a(qmp_get.o)
                              ../../../../../ports/arm-cortex/vanilla/gnu/spy\libqf_cortex-m3.a(qf_new.o) (QMPool::get())
../../../../../ports/arm-cortex/vanilla/gnu/spy\libqf_cortex-m3.a(qmp_init.o)
                              ../../../../../ports/arm-cortex/vanilla/gnu/spy\libqf_cortex-m3.a(qf_pool.o) (QMPool::init(void*, unsigned long, unsigned short))
../../../../../ports/arm-cortex/vanilla/gnu/spy\libqf_cortex-m3.a(qte_ctor.o)
                              spy/philo.o (QTimeEvt::QTimeEvt(unsigned char))
../../../../../ports/arm-cortex/vanilla/gnu/spy\libqf_cortex-m3.a(qte_arm.o)
                              spy/philo.o (QTimeEvt::arm_(QActive*, unsigned short))
../../../../../ports/arm-cortex/vanilla/gnu/spy\libqf_cortex-m3.a(qvanilla.o)
                              spy/main.o (QF::init())
../../../../../ports/arm-cortex/vanilla/gnu/spy\libqf_cortex-m3.a(qa_get_.o)
                              ../../../../../ports/arm-cortex/vanilla/gnu/spy\libqf_cortex-m3.a(qvanilla.o) (QActive::get_())
../../../../../ports/arm-cortex/vanilla/gnu/spy\libqf_cortex-m3.a(qeq_init.o)
                              ../../../../../ports/arm-cortex/vanilla/gnu/spy\libqf_cortex-m3.a(qvanilla.o) (QEQueue::init(QEvent const**, unsigned char))
../../../../../ports/arm-cortex/vanilla/gnu/spy\libqf_cortex-m3.a(qf_gc.o)
                              ../../../../../ports/arm-cortex/vanilla/gnu/spy\libqf_cortex-m3.a(qf_pspub.o) (QF::gc(QEvent const*))
../../../../../ports/arm-cortex/vanilla/gnu/spy\libqf_cortex-m3.a(qf_log2.o)
                              ../../../../../ports/arm-cortex/vanilla/gnu/spy\libqf_cortex-m3.a(qf_pspub.o) (QF_log2Lkup)
../../../../../ports/arm-cortex/vanilla/gnu/spy\libqf_cortex-m3.a(qmp_put.o)
                              ../../../../../ports/arm-cortex/vanilla/gnu/spy\libqf_cortex-m3.a(qf_gc.o) (QMPool::put(void*))
../../../../../ports/arm-cortex/vanilla/gnu/spy\libqep_cortex-m3.a(qhsm_ini.o)
                              spy/philo.o (QHsm::~QHsm())
../../../../../ports/arm-cortex/vanilla/gnu/spy\libqep_cortex-m3.a(qhsm_dis.o)
                              ../../../../../ports/arm-cortex/vanilla/gnu/spy\libqf_cortex-m3.a(qvanilla.o) (QHsm::dispatch(QEvent const*))
../../../../../ports/arm-cortex/vanilla/gnu/spy\libqep_cortex-m3.a(qhsm_top.o)
                              spy/philo.o (QHsm::top(QHsm*, QEvent const*))
../../../../../ports/arm-cortex/vanilla/gnu/spy\libqep_cortex-m3.a(qep.o)
                              ../../../../../ports/arm-cortex/vanilla/gnu/spy\libqep_cortex-m3.a(qhsm_ini.o) (QEP_reservedEvt_)
../../../../../ports/arm-cortex/vanilla/gnu/spy\libqs_cortex-m3.a(qs.o)
                              spy/bsp.o (QS::initBuf(unsigned char*, unsigned long))
../../../../../ports/arm-cortex/vanilla/gnu/spy\libqs_cortex-m3.a(qs_.o)
                              spy/philo.o (QS::u8_(unsigned char))
../../../../../ports/arm-cortex/vanilla/gnu/spy\libqs_cortex-m3.a(qs_blk.o)
                              spy/bsp.o (QS::getBlock(unsigned short*))
../../../../../ports/arm-cortex/vanilla/gnu/spy\libqs_cortex-m3.a(qs_str.o)
                              spy/bsp.o (QS::str(char const*))
c:/tools/codesourcery/bin/../lib/gcc/arm-none-eabi/4.5.1/../../../../arm-none-eabi/lib/thumb2\libc.a(lib_a-aeabi_atexit.o)
                              spy/philo.o (__aeabi_atexit)
c:/tools/codesourcery/bin/../lib/gcc/arm-none-eabi/4.5.1/../../../../arm-none-eabi/lib/thumb2\libc.a(lib_a-init.o)
                              spy/startup_lm3s.o (__libc_init_array)

Discarded input sections

 .group         0x00000000        0xc spy/philo.o
 .group         0x00000000        0xc spy/philo.o
 .group         0x00000000        0x8 spy/philo.o
 .group         0x00000000        0x8 spy/philo.o
 .group         0x00000000        0xc spy/table.o
 .group         0x00000000        0xc spy/table.o
 .group         0x00000000        0x8 spy/table.o
 .group         0x00000000        0x8 spy/table.o
 .text._ZN7QActiveD2Ev
                0x00000000       0x14 spy/table.o
 .text._ZN7QActiveD0Ev
                0x00000000       0x1c spy/table.o
 .rodata._ZTV7QActive
                0x00000000       0x10 spy/table.o
 .ARM.attributes
                0x00000000       0x29 c:/tools/codesourcery/bin/../lib/gcc/arm-none-eabi/4.5.1/../../../../arm-none-eabi/lib/thumb2\libc.a(lib_a-aeabi_atexit.o)
 .debug_frame   0x00000000       0x20 c:/tools/codesourcery/bin/../lib/gcc/arm-none-eabi/4.5.1/../../../../arm-none-eabi/lib/thumb2\libc.a(lib_a-aeabi_atexit.o)
 .ARM.attributes
                0x00000000       0x29 c:/tools/codesourcery/bin/../lib/gcc/arm-none-eabi/4.5.1/../../../../arm-none-eabi/lib/thumb2\libc.a(lib_a-init.o)
 .debug_frame   0x00000000       0x2c c:/tools/codesourcery/bin/../lib/gcc/arm-none-eabi/4.5.1/../../../../arm-none-eabi/lib/thumb2\libc.a(lib_a-init.o)

Memory Configuration

Name             Origin             Length             Attributes
ROM              0x00000000         0x00010000         xr
RAM              0x20000000         0x00002000         xrw
*default*        0x00000000         0xffffffff

Linker script and memory map

LOAD spy/display96x16x1.o
LOAD spy/startup_lm3s.o
LOAD spy/core_cm3.o
LOAD spy/system_lm3s.o
LOAD spy/bsp.o
LOAD spy/main.o
LOAD spy/mini_cpp.o
LOAD spy/no_heap.o
LOAD spy/philo.o
LOAD spy/table.o
LOAD ../../../../../ports/arm-cortex/vanilla/gnu/spy\libqf_cortex-m3.a
LOAD ../../../../../ports/arm-cortex/vanilla/gnu/spy\libqep_cortex-m3.a
LOAD ../../../../../ports/arm-cortex/vanilla/gnu/spy\libqs_cortex-m3.a
                0x00000258                STACK_SIZE = 0x258
                0x00000000                HEAP_SIZE = 0x0

.isr_vector     0x00000000       0xf0
 *(.isr_vector)
 .isr_vector    0x00000000       0xf0 spy/startup_lm3s.o
                0x00000000                g_pfnVectors
                0x000000f0                . = ALIGN (0x4)

.text           0x000000f0     0x528c
                0x000000f0                . = ALIGN (0x4)
 *(.text)
 .text          0x000000f0      0x58c spy/display96x16x1.o
                0x00000108                SysCtlDelay
                0x000001c8                Display96x16x1Clear
                0x00000250                Display96x16x1StringDraw
                0x00000344                Display96x16x1ImageDraw
                0x000003c8                Display96x16x1Init
                0x000005b8                Display96x16x1DisplayOn
                0x00000648                Display96x16x1DisplayOff
 .text          0x0000067c       0xac spy/startup_lm3s.o
                0x0000067c                DebugMon_Handler
                0x0000067c                FlashCtrl_IRQHandler
                0x0000067c                Timer0B_IRQHandler
                0x0000067c                I2C0_IRQHandler
                0x0000067c                PendSV_Handler
                0x0000067c                NMI_Handler
                0x0000067c                I2C1_IRQHandler
                0x0000067c                PWMGen0_IRQHandler
                0x0000067c                UART1_IRQHandler
                0x0000067c                CAN1_IRQHandler
                0x0000067c                Timer1B_IRQHandler
                0x0000067c                Watchdog_IRQHandler
                0x0000067c                UART0_IRQHandler
                0x0000067c                SSI0_IRQHandler
                0x0000067c                UsageFault_Handler
                0x0000067c                ADCSeq1_IRQHandler
                0x0000067c                PWMFault_IRQHandler
                0x0000067c                PWMGen1_IRQHandler
                0x0000067c                SSI1_IRQHandler
                0x0000067c                SysCtrl_IRQHandler
                0x0000067c                Spurious_Handler
                0x0000067c                GPIOPortC_IRQHandler
                0x0000067c                ADCSeq2_IRQHandler
                0x0000067c                PWMGen2_IRQHandler
                0x0000067c                UART2_IRQHandler
                0x0000067c                QEI1_IRQHandler
                0x0000067c                QEI0_IRQHandler
                0x0000067c                GPIOPortD_IRQHandler
                0x0000067c                MemManage_Handler
                0x0000067c                Ethernet_IRQHandler
                0x0000067c                SVC_Handler
                0x0000067c                Timer3B_IRQHandler
                0x0000067c                Timer3A_IRQHandler
                0x0000067c                GPIOPortA_IRQHandler
                0x0000067c                Timer0A_IRQHandler
                0x0000067c                ADCSeq0_IRQHandler
                0x0000067c                Timer1A_IRQHandler
                0x0000067c                GPIOPortG_IRQHandler
                0x0000067c                ADCSeq3_IRQHandler
                0x0000067c                GPIOPortE_IRQHandler
                0x0000067c                CAN0_IRQHandler
                0x0000067c                Comp0_IRQHandler
                0x0000067c                Comp1_IRQHandler
                0x0000067c                Comp2_IRQHandler
                0x0000067c                GPIOPortF_IRQHandler
                0x0000067c                GPIOPortB_IRQHandler
                0x0000067c                CAN2_IRQHandler
                0x0000067c                GPIOPortH_IRQHandler
                0x0000067c                BusFault_Handler
                0x0000067c                Timer2A_IRQHandler
                0x0000067c                Timer2B_IRQHandler
                0x0000067c                Hibernate_IRQHandler
                0x00000698                Reset_Handler
                0x00000724                _init
 .text          0x00000728       0xa4 spy/core_cm3.o
                0x00000728                __get_PSP
                0x00000730                __set_PSP
                0x00000738                __get_MSP
                0x00000740                __set_MSP
                0x00000748                __get_BASEPRI
                0x00000750                __set_BASEPRI
                0x00000758                __get_PRIMASK
                0x00000760                __set_PRIMASK
                0x00000768                __get_FAULTMASK
                0x00000770                __set_FAULTMASK
                0x00000778                __REV
                0x0000077c                __REV16
                0x00000780                __REVSH
                0x00000784                __RBIT
                0x0000078c                __LDREXB
                0x00000794                __LDREXH
                0x0000079c                __LDREXW
                0x000007a4                __STREXB
                0x000007ac                __STREXH
                0x000007b4                __STREXW
                0x000007bc                __get_CONTROL
                0x000007c4                __set_CONTROL
 .text          0x000007cc      0x3d0 spy/system_lm3s.o
                0x000007cc                SystemInit
 .text          0x00000b9c      0x5b4 spy/bsp.o
                0x00000b9c                SysTick_Handler
                0x00000bcc                BSP_driveLED(unsigned char)
                0x00000bf4                BSP_busyDelay()
                0x00000c0c                QF::onStartup()
                0x00000c84                QF::onCleanup()
                0x00000c88                QF::onIdle()
                0x00000cfc                Q_onAssert
                0x00000d00                assert_failed
                0x00000d08                QS::onStartup(void const*)
                0x00000f88                BSP_init()
                0x0000102c                QS::onCleanup()
                0x00001030                QS::onGetTime()
                0x00001068                BSP_displyPhilStat(unsigned char, char const*)
                0x000010ec                QS::onFlush()
 .text          0x00001150      0x22c spy/main.o
                0x00001150                main
 .text          0x0000137c       0x14 spy/mini_cpp.o
                0x0000137c                operator new(unsigned int)
                0x00001384                operator delete(void*)
                0x0000138c                __cxa_atexit
 .text          0x00001390       0x44 spy/no_heap.o
                0x00001390                malloc
                0x000013a8                free
                0x000013bc                calloc
 .text          0x000013d4      0x6ac spy/philo.o
                0x000013f4                Philo::eating(Philo*, QEvent const*)
                0x000014cc                Philo::thinking(Philo*, QEvent const*)
                0x00001564                Philo::hungry(Philo*, QEvent const*)
                0x00001648                Philo::initial(Philo*, QEvent const*)
                0x00001a24                Philo::Philo()
                0x00001a24                Philo::Philo()
 .text          0x00001a80      0x46c spy/table.o
                0x00001a80                Table::serving(Table*, QEvent const*)
                0x00001c88                Table::initial(Table*, QEvent const*)
                0x00001e90                Table::Table()
                0x00001e90                Table::Table()
 .text          0x00001eec       0xe8 ../../../../../ports/arm-cortex/vanilla/gnu/spy\libqf_cortex-m3.a(qa_fifo.o)
                0x00001eec                QActive::postFIFO(QEvent const*)
 .text          0x00001fd4       0xbc ../../../../../ports/arm-cortex/vanilla/gnu/spy\libqf_cortex-m3.a(qa_sub.o)
                0x00001fd4                QActive::subscribe(unsigned char) const
 .text          0x00002090      0x110 ../../../../../ports/arm-cortex/vanilla/gnu/spy\libqf_cortex-m3.a(qf_act.o)
                0x00002090                QF::getVersion()
                0x0000209c                QF::add_(QActive*)
                0x0000211c                QF::remove_(QActive const*)
 .text          0x000021a0       0xbc ../../../../../ports/arm-cortex/vanilla/gnu/spy\libqf_cortex-m3.a(qf_new.o)
                0x000021a0                QF::new_(unsigned short, unsigned char)
 .text          0x0000225c       0x88 ../../../../../ports/arm-cortex/vanilla/gnu/spy\libqf_cortex-m3.a(qf_pool.o)
                0x0000225c                QF::poolInit(void*, unsigned long, unsigned short)
 .text          0x000022e4       0x10 ../../../../../ports/arm-cortex/vanilla/gnu/spy\libqf_cortex-m3.a(qf_psini.o)
                0x000022e4                QF::psInit(QSubscrList*, unsigned char)
 .text          0x000022f4       0xf0 ../../../../../ports/arm-cortex/vanilla/gnu/spy\libqf_cortex-m3.a(qf_pspub.o)
                0x000022f4                QF::publish(QEvent const*)
 .text          0x000023e4        0x0 ../../../../../ports/arm-cortex/vanilla/gnu/spy\libqf_cortex-m3.a(qf_pwr2.o)
 .text          0x000023e4      0x114 ../../../../../ports/arm-cortex/vanilla/gnu/spy\libqf_cortex-m3.a(qf_tick.o)
                0x000023e4                QF::tick()
 .text          0x000024f8       0xb0 ../../../../../ports/arm-cortex/vanilla/gnu/spy\libqf_cortex-m3.a(qmp_get.o)
                0x000024f8                QMPool::get()
                0x00002568                QF::getPoolMargin(unsigned char)
 .text          0x000025a8      0x110 ../../../../../ports/arm-cortex/vanilla/gnu/spy\libqf_cortex-m3.a(qmp_init.o)
                0x000025a8                QMPool::init(void*, unsigned long, unsigned short)
 .text          0x000026b8       0x34 ../../../../../ports/arm-cortex/vanilla/gnu/spy\libqf_cortex-m3.a(qte_ctor.o)
                0x000026b8                QTimeEvt::QTimeEvt(unsigned char)
                0x000026b8                QTimeEvt::QTimeEvt(unsigned char)
 .text          0x000026ec       0xa8 ../../../../../ports/arm-cortex/vanilla/gnu/spy\libqf_cortex-m3.a(qte_arm.o)
                0x000026ec                QTimeEvt::arm_(QActive*, unsigned short)
 .text          0x00002794       0xe8 ../../../../../ports/arm-cortex/vanilla/gnu/spy\libqf_cortex-m3.a(qvanilla.o)
                0x00002794                QF::getPortVersion()
                0x000027a0                QF::init()
                0x000027a4                QF::stop()
                0x000027ac                QF::run()
                0x0000281c                QActive::start(unsigned char, QEvent const**, unsigned long, void*, unsigned long, QEvent const*)
                0x00002874                QActive::stop()
 .text          0x0000287c      0x168 ../../../../../ports/arm-cortex/vanilla/gnu/spy\libqf_cortex-m3.a(qa_get_.o)
                0x0000287c                QActive::get_()
                0x000029a8                QF::getQueueMargin(unsigned char)
 .text          0x000029e4       0x58 ../../../../../ports/arm-cortex/vanilla/gnu/spy\libqf_cortex-m3.a(qeq_init.o)
                0x000029e4                QEQueue::init(QEvent const**, unsigned char)
 .text          0x00002a3c       0xc0 ../../../../../ports/arm-cortex/vanilla/gnu/spy\libqf_cortex-m3.a(qf_gc.o)
                0x00002a3c                QF::gc(QEvent const*)
 .text          0x00002afc        0x0 ../../../../../ports/arm-cortex/vanilla/gnu/spy\libqf_cortex-m3.a(qf_log2.o)
 .text          0x00002afc       0x80 ../../../../../ports/arm-cortex/vanilla/gnu/spy\libqf_cortex-m3.a(qmp_put.o)
                0x00002afc                QMPool::put(void*)
 .text          0x00002b7c      0x1a0 ../../../../../ports/arm-cortex/vanilla/gnu/spy\libqep_cortex-m3.a(qhsm_ini.o)
                0x00002b7c                QHsm::~QHsm()
                0x00002b7c                QHsm::~QHsm()
                0x00002b88                QHsm::~QHsm()
                0x00002b9c                QHsm::init(QEvent const*)
 .text          0x00002d1c      0x5e4 ../../../../../ports/arm-cortex/vanilla/gnu/spy\libqep_cortex-m3.a(qhsm_dis.o)
                0x00002d1c                QHsm::dispatch(QEvent const*)
 .text          0x00003300        0x8 ../../../../../ports/arm-cortex/vanilla/gnu/spy\libqep_cortex-m3.a(qhsm_top.o)
                0x00003300                QHsm::top(QHsm*, QEvent const*)
 .text          0x00003308        0xc ../../../../../ports/arm-cortex/vanilla/gnu/spy\libqep_cortex-m3.a(qep.o)
                0x00003308                QEP::getVersion()
 .text          0x00003314      0xba4 ../../../../../ports/arm-cortex/vanilla/gnu/spy\libqs_cortex-m3.a(qs.o)
                0x00003314                QS::getVersion()
                0x00003320                QS::initBuf(unsigned char*, unsigned long)
                0x00003330                QS::filterOn(unsigned char)
                0x00003374                QS::filterOff(unsigned char)
                0x000033b8                QS::begin(unsigned char)
                0x00003564                QS::end()
                0x00003690                QS::u8(unsigned char, unsigned char)
                0x00003830                QS::u16(unsigned char, unsigned short)
                0x00003aa4                QS::u32(unsigned char, unsigned long)
 .text          0x00003eb8      0x8b4 ../../../../../ports/arm-cortex/vanilla/gnu/spy\libqs_cortex-m3.a(qs_.o)
                0x00003eb8                QS::u8_(unsigned char)
                0x00003fc0                QS::u16_(unsigned short)
                0x000041d0                QS::u32_(unsigned long)
                0x000045e8                QS::str_(char const*)
                0x000046b0                QS::str_ROM_(char const*)
 .text          0x0000476c       0x74 ../../../../../ports/arm-cortex/vanilla/gnu/spy\libqs_cortex-m3.a(qs_blk.o)
                0x0000476c                QS::getBlock(unsigned short*)
 .text          0x000047e0      0x238 ../../../../../ports/arm-cortex/vanilla/gnu/spy\libqs_cortex-m3.a(qs_str.o)
                0x000047e0                QS::str(char const*)
                0x000048fc                QS::str_ROM(char const*)
 .text          0x00004a18        0xa c:/tools/codesourcery/bin/../lib/gcc/arm-none-eabi/4.5.1/../../../../arm-none-eabi/lib/thumb2\libc.a(lib_a-aeabi_atexit.o)
                0x00004a18                __aeabi_atexit
 *fill*         0x00004a22        0x2 00
 .text          0x00004a24       0x48 c:/tools/codesourcery/bin/../lib/gcc/arm-none-eabi/4.5.1/../../../../arm-none-eabi/lib/thumb2\libc.a(lib_a-init.o)
                0x00004a24                __libc_init_array
 *(.text*)
 .text._ZN7QActiveD2Ev
                0x00004a6c       0x14 spy/philo.o
                0x00004a6c                QActive::~QActive()
                0x00004a6c                QActive::~QActive()
 .text._ZN5PhiloD2Ev
                0x00004a80       0x14 spy/philo.o
                0x00004a80                Philo::~Philo()
                0x00004a80                Philo::~Philo()
 .text._ZN7QActiveD0Ev
                0x00004a94       0x1c spy/philo.o
                0x00004a94                QActive::~QActive()
 .text._ZN5PhiloD0Ev
                0x00004ab0       0x1c spy/philo.o
                0x00004ab0                Philo::~Philo()
 .text._ZN5TableD2Ev
                0x00004acc       0x14 spy/table.o
                0x00004acc                Table::~Table()
                0x00004acc                Table::~Table()
 .text._ZN5TableD0Ev
                0x00004ae0       0x1c spy/table.o
                0x00004ae0                Table::~Table()
 *(.rodata)
 .rodata        0x00004afc      0x2c0 spy/display96x16x1.o
 .rodata        0x00004dbc       0x5c spy/system_lm3s.o
 .rodata        0x00004e18        0x8 spy/bsp.o
 .rodata        0x00004e20       0x84 spy/main.o
 .rodata        0x00004ea4        0xc spy/no_heap.o
 .rodata        0x00004eb0      0x130 spy/philo.o
                0x00004fcc                AO_Philo
 .rodata        0x00004fe0       0x78 spy/table.o
                0x00005054                AO_Table
 .rodata        0x00005058        0x8 ../../../../../ports/arm-cortex/vanilla/gnu/spy\libqf_cortex-m3.a(qa_fifo.o)
 .rodata        0x00005060        0x8 ../../../../../ports/arm-cortex/vanilla/gnu/spy\libqf_cortex-m3.a(qa_sub.o)
 .rodata        0x00005068       0x10 ../../../../../ports/arm-cortex/vanilla/gnu/spy\libqf_cortex-m3.a(qf_act.o)
 .rodata        0x00005078        0x8 ../../../../../ports/arm-cortex/vanilla/gnu/spy\libqf_cortex-m3.a(qf_new.o)
 .rodata        0x00005080        0x8 ../../../../../ports/arm-cortex/vanilla/gnu/spy\libqf_cortex-m3.a(qf_pool.o)
 .rodata        0x00005088        0xc ../../../../../ports/arm-cortex/vanilla/gnu/spy\libqf_cortex-m3.a(qf_pspub.o)
 .rodata        0x00005094       0xcc ../../../../../ports/arm-cortex/vanilla/gnu/spy\libqf_cortex-m3.a(qf_pwr2.o)
                0x00005094                QF_pwr2Lkup
                0x000050d8                QF_invPwr2Lkup
                0x0000511c                QF_div8Lkup
 .rodata        0x00005160        0x8 ../../../../../ports/arm-cortex/vanilla/gnu/spy\libqf_cortex-m3.a(qmp_get.o)
 .rodata        0x00005168        0xc ../../../../../ports/arm-cortex/vanilla/gnu/spy\libqf_cortex-m3.a(qmp_init.o)
 .rodata        0x00005174        0xc ../../../../../ports/arm-cortex/vanilla/gnu/spy\libqf_cortex-m3.a(qte_ctor.o)
 .rodata        0x00005180        0x8 ../../../../../ports/arm-cortex/vanilla/gnu/spy\libqf_cortex-m3.a(qte_arm.o)
 .rodata        0x00005188       0x14 ../../../../../ports/arm-cortex/vanilla/gnu/spy\libqf_cortex-m3.a(qvanilla.o)
 .rodata        0x0000519c        0x8 ../../../../../ports/arm-cortex/vanilla/gnu/spy\libqf_cortex-m3.a(qa_get_.o)
 .rodata        0x000051a4        0x8 ../../../../../ports/arm-cortex/vanilla/gnu/spy\libqf_cortex-m3.a(qf_gc.o)
 .rodata        0x000051ac      0x100 ../../../../../ports/arm-cortex/vanilla/gnu/spy\libqf_cortex-m3.a(qf_log2.o)
                0x000051ac                QF_log2Lkup
 .rodata        0x000052ac        0x8 ../../../../../ports/arm-cortex/vanilla/gnu/spy\libqf_cortex-m3.a(qmp_put.o)
 *fill*         0x000052b4        0x4 00
 .rodata        0x000052b8       0x20 ../../../../../ports/arm-cortex/vanilla/gnu/spy\libqep_cortex-m3.a(qhsm_ini.o)
                0x000052b8                vtable for QHsm
 .rodata        0x000052d8        0xc ../../../../../ports/arm-cortex/vanilla/gnu/spy\libqep_cortex-m3.a(qhsm_dis.o)
 .rodata        0x000052e4       0x10 ../../../../../ports/arm-cortex/vanilla/gnu/spy\libqep_cortex-m3.a(qep.o)
                0x000052ec                QEP_reservedEvt_
 .rodata        0x000052f4        0x8 ../../../../../ports/arm-cortex/vanilla/gnu/spy\libqs_cortex-m3.a(qs.o)
 *(.rodata*)
 .rodata.str1.4
                0x000052fc        0x8 spy/startup_lm3s.o
 .rodata.str1.4
                0x00005304       0x1e spy/bsp.o
                                 0x20 (size before relaxing)
 *fill*         0x00005322        0x6 00
 .rodata._ZTV5Philo
                0x00005328       0x10 spy/philo.o
                0x00005328                vtable for Philo
 .rodata._ZTV7QActive
                0x00005338       0x10 spy/philo.o
                0x00005338                vtable for QActive
 .rodata._ZTV5Table
                0x00005348       0x10 spy/table.o
                0x00005348                vtable for Table
 .rodata.str1.4
                0x00005358       0x24 spy/table.o
 *(.init)
 *(.fini)
                0x0000537c                . = ALIGN (0x4)

.glue_7         0x0000537c        0x0
 .glue_7        0x00000000        0x0 linker stubs

.glue_7t        0x0000537c        0x0
 .glue_7t       0x00000000        0x0 linker stubs

.vfp11_veneer   0x0000537c        0x0
 .vfp11_veneer  0x00000000        0x0 linker stubs

.v4_bx          0x0000537c        0x0
 .v4_bx         0x00000000        0x0 linker stubs

.preinit_array  0x0000537c        0x0
                0x0000537c                PROVIDE (__preinit_array_start, .)
 *(.preinit_array*)
                0x0000537c                PROVIDE (__preinit_array_end, .)

.init_array     0x0000537c        0x8
                0x0000537c                PROVIDE (__init_array_start, .)
 *(SORT(.init_array.*))
 *(.init_array*)
 .init_array    0x0000537c        0x4 spy/philo.o
 .init_array    0x00005380        0x4 spy/table.o
                0x00005384                PROVIDE (__init_array_end, .)

.fini_array     0x00005384        0x0
                0x00005384                PROVIDE (__fini_array_start, .)
 *(.fini_array*)
 *(SORT(.fini_array.*))
                0x00005384                PROVIDE (__fini_array_end, .)
                0x00005384                _etext = .

.data           0x20000000        0x0 load address 0x00005384
                0x00005384                __data_load = LOADADDR (.data)
                0x20000000                __data_start = .
 *(.data)
 .data          0x20000000        0x0 spy/display96x16x1.o
 .data          0x20000000        0x0 spy/startup_lm3s.o
 .data          0x20000000        0x0 spy/core_cm3.o
 .data          0x20000000        0x0 spy/system_lm3s.o
 .data          0x20000000        0x0 spy/bsp.o
 .data          0x20000000        0x0 spy/main.o
 .data          0x20000000        0x0 spy/mini_cpp.o
 .data          0x20000000        0x0 spy/no_heap.o
 .data          0x20000000        0x0 spy/philo.o
 .data          0x20000000        0x0 spy/table.o
 .data          0x20000000        0x0 ../../../../../ports/arm-cortex/vanilla/gnu/spy\libqf_cortex-m3.a(qa_fifo.o)
 .data          0x20000000        0x0 ../../../../../ports/arm-cortex/vanilla/gnu/spy\libqf_cortex-m3.a(qa_sub.o)
 .data          0x20000000        0x0 ../../../../../ports/arm-cortex/vanilla/gnu/spy\libqf_cortex-m3.a(qf_act.o)
 .data          0x20000000        0x0 ../../../../../ports/arm-cortex/vanilla/gnu/spy\libqf_cortex-m3.a(qf_new.o)
 .data          0x20000000        0x0 ../../../../../ports/arm-cortex/vanilla/gnu/spy\libqf_cortex-m3.a(qf_pool.o)
 .data          0x20000000        0x0 ../../../../../ports/arm-cortex/vanilla/gnu/spy\libqf_cortex-m3.a(qf_psini.o)
 .data          0x20000000        0x0 ../../../../../ports/arm-cortex/vanilla/gnu/spy\libqf_cortex-m3.a(qf_pspub.o)
 .data          0x20000000        0x0 ../../../../../ports/arm-cortex/vanilla/gnu/spy\libqf_cortex-m3.a(qf_pwr2.o)
 .data          0x20000000        0x0 ../../../../../ports/arm-cortex/vanilla/gnu/spy\libqf_cortex-m3.a(qf_tick.o)
 .data          0x20000000        0x0 ../../../../../ports/arm-cortex/vanilla/gnu/spy\libqf_cortex-m3.a(qmp_get.o)
 .data          0x20000000        0x0 ../../../../../ports/arm-cortex/vanilla/gnu/spy\libqf_cortex-m3.a(qmp_init.o)
 .data          0x20000000        0x0 ../../../../../ports/arm-cortex/vanilla/gnu/spy\libqf_cortex-m3.a(qte_ctor.o)
 .data          0x20000000        0x0 ../../../../../ports/arm-cortex/vanilla/gnu/spy\libqf_cortex-m3.a(qte_arm.o)
 .data          0x20000000        0x0 ../../../../../ports/arm-cortex/vanilla/gnu/spy\libqf_cortex-m3.a(qvanilla.o)
 .data          0x20000000        0x0 ../../../../../ports/arm-cortex/vanilla/gnu/spy\libqf_cortex-m3.a(qa_get_.o)
 .data          0x20000000        0x0 ../../../../../ports/arm-cortex/vanilla/gnu/spy\libqf_cortex-m3.a(qeq_init.o)
 .data          0x20000000        0x0 ../../../../../ports/arm-cortex/vanilla/gnu/spy\libqf_cortex-m3.a(qf_gc.o)
 .data          0x20000000        0x0 ../../../../../ports/arm-cortex/vanilla/gnu/spy\libqf_cortex-m3.a(qf_log2.o)
 .data          0x20000000        0x0 ../../../../../ports/arm-cortex/vanilla/gnu/spy\libqf_cortex-m3.a(qmp_put.o)
 .data          0x20000000        0x0 ../../../../../ports/arm-cortex/vanilla/gnu/spy\libqep_cortex-m3.a(qhsm_ini.o)
 .data          0x20000000        0x0 ../../../../../ports/arm-cortex/vanilla/gnu/spy\libqep_cortex-m3.a(qhsm_dis.o)
 .data          0x20000000        0x0 ../../../../../ports/arm-cortex/vanilla/gnu/spy\libqep_cortex-m3.a(qhsm_top.o)
 .data          0x20000000        0x0 ../../../../../ports/arm-cortex/vanilla/gnu/spy\libqep_cortex-m3.a(qep.o)
 .data          0x20000000        0x0 ../../../../../ports/arm-cortex/vanilla/gnu/spy\libqs_cortex-m3.a(qs.o)
 .data          0x20000000        0x0 ../../../../../ports/arm-cortex/vanilla/gnu/spy\libqs_cortex-m3.a(qs_.o)
 .data          0x20000000        0x0 ../../../../../ports/arm-cortex/vanilla/gnu/spy\libqs_cortex-m3.a(qs_blk.o)
 .data          0x20000000        0x0 ../../../../../ports/arm-cortex/vanilla/gnu/spy\libqs_cortex-m3.a(qs_str.o)
 .data          0x20000000        0x0 c:/tools/codesourcery/bin/../lib/gcc/arm-none-eabi/4.5.1/../../../../arm-none-eabi/lib/thumb2\libc.a(lib_a-aeabi_atexit.o)
 .data          0x20000000        0x0 c:/tools/codesourcery/bin/../lib/gcc/arm-none-eabi/4.5.1/../../../../arm-none-eabi/lib/thumb2\libc.a(lib_a-init.o)
 *(.data*)
                0x20000000                . = ALIGN (0x4)
                0x20000000                __data_end__ = .
                0x20000000                _edata = __data_end__

.bss            0x20000000      0x9b8 load address 0x00005384
                0x20000000                __bss_start__ = .
 *(.bss)
 .bss           0x20000000        0x8 spy/display96x16x1.o
 .bss           0x20000008        0x0 spy/startup_lm3s.o
 .bss           0x20000008        0x0 spy/core_cm3.o
 .bss           0x20000008        0x4 spy/system_lm3s.o
                0x20000008                SystemFrequency
 .bss           0x2000000c      0x608 spy/bsp.o
                0x2000000c                QS_tickTime_
                0x20000010                QS_tickPeriod_
 .bss           0x20000614       0xd8 spy/main.o
 .bss           0x200006ec        0x4 spy/mini_cpp.o
                0x200006ec                __dso_handle
 .bss           0x200006f0        0x0 spy/no_heap.o
 .bss           0x200006f0       0xf4 spy/philo.o
 .bss           0x200007e4       0x24 spy/table.o
 .bss           0x20000808        0x0 ../../../../../ports/arm-cortex/vanilla/gnu/spy\libqf_cortex-m3.a(qa_fifo.o)
 .bss           0x20000808        0x0 ../../../../../ports/arm-cortex/vanilla/gnu/spy\libqf_cortex-m3.a(qa_sub.o)
 .bss           0x20000808      0x104 ../../../../../ports/arm-cortex/vanilla/gnu/spy\libqf_cortex-m3.a(qf_act.o)
                0x20000808                QF::active_
                0x20000908                QF_intLockNest_
 .bss           0x2000090c        0x0 ../../../../../ports/arm-cortex/vanilla/gnu/spy\libqf_cortex-m3.a(qf_new.o)
 .bss           0x2000090c       0x40 ../../../../../ports/arm-cortex/vanilla/gnu/spy\libqf_cortex-m3.a(qf_pool.o)
                0x2000090c                QF_maxPool_
                0x20000910                QF_pool_
 .bss           0x2000094c        0x8 ../../../../../ports/arm-cortex/vanilla/gnu/spy\libqf_cortex-m3.a(qf_psini.o)
                0x2000094c                QF_subscrList_
                0x20000950                QF_maxSignal_
 .bss           0x20000954        0x0 ../../../../../ports/arm-cortex/vanilla/gnu/spy\libqf_cortex-m3.a(qf_pspub.o)
 .bss           0x20000954        0x0 ../../../../../ports/arm-cortex/vanilla/gnu/spy\libqf_cortex-m3.a(qf_pwr2.o)
 .bss           0x20000954        0x1 ../../../../../ports/arm-cortex/vanilla/gnu/spy\libqf_cortex-m3.a(qf_tick.o)
 .bss           0x20000955        0x0 ../../../../../ports/arm-cortex/vanilla/gnu/spy\libqf_cortex-m3.a(qmp_get.o)
 .bss           0x20000955        0x0 ../../../../../ports/arm-cortex/vanilla/gnu/spy\libqf_cortex-m3.a(qmp_init.o)
 .bss           0x20000955        0x0 ../../../../../ports/arm-cortex/vanilla/gnu/spy\libqf_cortex-m3.a(qte_ctor.o)
 *fill*         0x20000955        0x3 00
 .bss           0x20000958        0x4 ../../../../../ports/arm-cortex/vanilla/gnu/spy\libqf_cortex-m3.a(qte_arm.o)
                0x20000958                QF_timeEvtListHead_
 .bss           0x2000095c        0xc ../../../../../ports/arm-cortex/vanilla/gnu/spy\libqf_cortex-m3.a(qvanilla.o)
                0x2000095c                QF_readySet_
 .bss           0x20000968        0x0 ../../../../../ports/arm-cortex/vanilla/gnu/spy\libqf_cortex-m3.a(qa_get_.o)
 .bss           0x20000968        0x0 ../../../../../ports/arm-cortex/vanilla/gnu/spy\libqf_cortex-m3.a(qeq_init.o)
 .bss           0x20000968        0x0 ../../../../../ports/arm-cortex/vanilla/gnu/spy\libqf_cortex-m3.a(qf_gc.o)
 .bss           0x20000968        0x0 ../../../../../ports/arm-cortex/vanilla/gnu/spy\libqf_cortex-m3.a(qf_log2.o)
 .bss           0x20000968        0x0 ../../../../../ports/arm-cortex/vanilla/gnu/spy\libqf_cortex-m3.a(qmp_put.o)
 .bss           0x20000968        0x0 ../../../../../ports/arm-cortex/vanilla/gnu/spy\libqep_cortex-m3.a(qhsm_ini.o)
 .bss           0x20000968        0x0 ../../../../../ports/arm-cortex/vanilla/gnu/spy\libqep_cortex-m3.a(qhsm_dis.o)
 .bss           0x20000968        0x0 ../../../../../ports/arm-cortex/vanilla/gnu/spy\libqep_cortex-m3.a(qhsm_top.o)
 .bss           0x20000968        0x0 ../../../../../ports/arm-cortex/vanilla/gnu/spy\libqep_cortex-m3.a(qep.o)
 .bss           0x20000968       0x34 ../../../../../ports/arm-cortex/vanilla/gnu/spy\libqs_cortex-m3.a(qs.o)
                0x20000968                QS_ring_
                0x2000096c                QS_end_
                0x20000970                QS::glbFilter_
                0x20000990                QS_seq_
                0x20000991                QS_chksum_
                0x20000992                QS_head_
                0x20000994                QS_used_
                0x20000996                QS_tail_
                0x20000998                QS_full_
 .bss           0x2000099c       0x1c ../../../../../ports/arm-cortex/vanilla/gnu/spy\libqs_cortex-m3.a(qs_.o)
                0x2000099c                QS::smObj_
                0x200009a0                QS::aoObj_
                0x200009a4                QS::mpObj_
                0x200009a8                QS::eqObj_
                0x200009ac                QS::teObj_
                0x200009b0                QS::apObj_
                0x200009b4                QS::tickCtr_
 .bss           0x200009b8        0x0 ../../../../../ports/arm-cortex/vanilla/gnu/spy\libqs_cortex-m3.a(qs_blk.o)
 .bss           0x200009b8        0x0 ../../../../../ports/arm-cortex/vanilla/gnu/spy\libqs_cortex-m3.a(qs_str.o)
 .bss           0x200009b8        0x0 c:/tools/codesourcery/bin/../lib/gcc/arm-none-eabi/4.5.1/../../../../arm-none-eabi/lib/thumb2\libc.a(lib_a-aeabi_atexit.o)
 .bss           0x200009b8        0x0 c:/tools/codesourcery/bin/../lib/gcc/arm-none-eabi/4.5.1/../../../../arm-none-eabi/lib/thumb2\libc.a(lib_a-init.o)
 *(.bss*)
 *(COMMON)
                0x200009b8                . = ALIGN (0x4)
                0x200009b8                _ebss = .
                0x200009b8                __bss_end__ = .
                0x200009b8                PROVIDE (end, _ebss)
                0x200009b8                PROVIDE (_end, _ebss)
                0x200009b8                PROVIDE (__end__, _ebss)

.heap           0x200009b8        0x0
                0x200009b8                __heap_start__ = .
                0x200009b8                . = (. + HEAP_SIZE)
                0x200009b8                . = ALIGN (0x4)
                0x200009b8                __heap_end__ = .

.stack          0x200009b8      0x258 load address 0x00005d3c
                0x200009b8                __stack_start__ = .
                0x20000c10                . = (. + STACK_SIZE)
 *fill*         0x200009b8      0x258 00
                0x20000c10                . = ALIGN (0x4)
                0x20000c10                __c_stack_top__ = .
                0x20000c10                __stack_end__ = .

/DISCARD/
 libc.a(*)
 libm.a(*)
 libgcc.a(*)
OUTPUT(spy/dpp.elf elf32-littlearm)

.debug_abbrev   0x00000000     0x4498
 .debug_abbrev  0x00000000      0x19b spy/display96x16x1.o
 .debug_abbrev  0x0000019b      0x111 spy/startup_lm3s.o
 .debug_abbrev  0x000002ac       0xb2 spy/core_cm3.o
 .debug_abbrev  0x0000035e      0x104 spy/system_lm3s.o
 .debug_abbrev  0x00000462      0x4c3 spy/bsp.o
 .debug_abbrev  0x00000925      0x296 spy/main.o
 .debug_abbrev  0x00000bbb       0xda spy/mini_cpp.o
 .debug_abbrev  0x00000c95       0xac spy/no_heap.o
 .debug_abbrev  0x00000d41      0x3fe spy/philo.o
 .debug_abbrev  0x0000113f      0x3b1 spy/table.o
 .debug_abbrev  0x000014f0      0x28b ../../../../../ports/arm-cortex/vanilla/gnu/spy\libqf_cortex-m3.a(qa_fifo.o)
 .debug_abbrev  0x0000177b      0x27f ../../../../../ports/arm-cortex/vanilla/gnu/spy\libqf_cortex-m3.a(qa_sub.o)
 .debug_abbrev  0x000019fa      0x2ac ../../../../../ports/arm-cortex/vanilla/gnu/spy\libqf_cortex-m3.a(qf_act.o)
 .debug_abbrev  0x00001ca6      0x1f2 ../../../../../ports/arm-cortex/vanilla/gnu/spy\libqf_cortex-m3.a(qf_new.o)
 .debug_abbrev  0x00001e98      0x182 ../../../../../ports/arm-cortex/vanilla/gnu/spy\libqf_cortex-m3.a(qf_pool.o)
 .debug_abbrev  0x0000201a       0xe5 ../../../../../ports/arm-cortex/vanilla/gnu/spy\libqf_cortex-m3.a(qf_psini.o)
 .debug_abbrev  0x000020ff      0x288 ../../../../../ports/arm-cortex/vanilla/gnu/spy\libqf_cortex-m3.a(qf_pspub.o)
 .debug_abbrev  0x00002387       0x65 ../../../../../ports/arm-cortex/vanilla/gnu/spy\libqf_cortex-m3.a(qf_pwr2.o)
 .debug_abbrev  0x000023ec      0x2c3 ../../../../../ports/arm-cortex/vanilla/gnu/spy\libqf_cortex-m3.a(qf_tick.o)
 .debug_abbrev  0x000026af      0x1cf ../../../../../ports/arm-cortex/vanilla/gnu/spy\libqf_cortex-m3.a(qmp_get.o)
 .debug_abbrev  0x0000287e      0x19d ../../../../../ports/arm-cortex/vanilla/gnu/spy\libqf_cortex-m3.a(qmp_init.o)
 .debug_abbrev  0x00002a1b      0x295 ../../../../../ports/arm-cortex/vanilla/gnu/spy\libqf_cortex-m3.a(qte_ctor.o)
 .debug_abbrev  0x00002cb0      0x2ae ../../../../../ports/arm-cortex/vanilla/gnu/spy\libqf_cortex-m3.a(qte_arm.o)
 .debug_abbrev  0x00002f5e      0x359 ../../../../../ports/arm-cortex/vanilla/gnu/spy\libqf_cortex-m3.a(qvanilla.o)
 .debug_abbrev  0x000032b7      0x2e4 ../../../../../ports/arm-cortex/vanilla/gnu/spy\libqf_cortex-m3.a(qa_get_.o)
 .debug_abbrev  0x0000359b      0x14c ../../../../../ports/arm-cortex/vanilla/gnu/spy\libqf_cortex-m3.a(qeq_init.o)
 .debug_abbrev  0x000036e7      0x1b3 ../../../../../ports/arm-cortex/vanilla/gnu/spy\libqf_cortex-m3.a(qf_gc.o)
 .debug_abbrev  0x0000389a       0x65 ../../../../../ports/arm-cortex/vanilla/gnu/spy\libqf_cortex-m3.a(qf_log2.o)
 .debug_abbrev  0x000038ff      0x176 ../../../../../ports/arm-cortex/vanilla/gnu/spy\libqf_cortex-m3.a(qmp_put.o)
 .debug_abbrev  0x00003a75      0x242 ../../../../../ports/arm-cortex/vanilla/gnu/spy\libqep_cortex-m3.a(qhsm_ini.o)
 .debug_abbrev  0x00003cb7      0x152 ../../../../../ports/arm-cortex/vanilla/gnu/spy\libqep_cortex-m3.a(qhsm_dis.o)
 .debug_abbrev  0x00003e09       0xd7 ../../../../../ports/arm-cortex/vanilla/gnu/spy\libqep_cortex-m3.a(qhsm_top.o)
 .debug_abbrev  0x00003ee0       0xf4 ../../../../../ports/arm-cortex/vanilla/gnu/spy\libqep_cortex-m3.a(qep.o)
 .debug_abbrev  0x00003fd4      0x19b ../../../../../ports/arm-cortex/vanilla/gnu/spy\libqs_cortex-m3.a(qs.o)
 .debug_abbrev  0x0000416f      0x132 ../../../../../ports/arm-cortex/vanilla/gnu/spy\libqs_cortex-m3.a(qs_.o)
 .debug_abbrev  0x000042a1       0xee ../../../../../ports/arm-cortex/vanilla/gnu/spy\libqs_cortex-m3.a(qs_blk.o)
 .debug_abbrev  0x0000438f      0x109 ../../../../../ports/arm-cortex/vanilla/gnu/spy\libqs_cortex-m3.a(qs_str.o)

.debug_info     0x00000000     0xda49
 .debug_info    0x00000000      0x90f spy/display96x16x1.o
 .debug_info    0x0000090f      0x1c1 spy/startup_lm3s.o
 .debug_info    0x00000ad0      0x54b spy/core_cm3.o
 .debug_info    0x0000101b      0x444 spy/system_lm3s.o
 .debug_info    0x0000145f     0x1628 spy/bsp.o
 .debug_info    0x00002a87      0x942 spy/main.o
 .debug_info    0x000033c9      0x10b spy/mini_cpp.o
 .debug_info    0x000034d4      0x18f spy/no_heap.o
 .debug_info    0x00003663     0x110c spy/philo.o
 .debug_info    0x0000476f      0xcf0 spy/table.o
 .debug_info    0x0000545f      0x8e1 ../../../../../ports/arm-cortex/vanilla/gnu/spy\libqf_cortex-m3.a(qa_fifo.o)
 .debug_info    0x00005d40      0x73f ../../../../../ports/arm-cortex/vanilla/gnu/spy\libqf_cortex-m3.a(qa_sub.o)
 .debug_info    0x0000647f      0x78e ../../../../../ports/arm-cortex/vanilla/gnu/spy\libqf_cortex-m3.a(qf_act.o)
 .debug_info    0x00006c0d      0x525 ../../../../../ports/arm-cortex/vanilla/gnu/spy\libqf_cortex-m3.a(qf_new.o)
 .debug_info    0x00007132      0x329 ../../../../../ports/arm-cortex/vanilla/gnu/spy\libqf_cortex-m3.a(qf_pool.o)
 .debug_info    0x0000745b      0x1b2 ../../../../../ports/arm-cortex/vanilla/gnu/spy\libqf_cortex-m3.a(qf_psini.o)
 .debug_info    0x0000760d      0x74c ../../../../../ports/arm-cortex/vanilla/gnu/spy\libqf_cortex-m3.a(qf_pspub.o)
 .debug_info    0x00007d59       0xf9 ../../../../../ports/arm-cortex/vanilla/gnu/spy\libqf_cortex-m3.a(qf_pwr2.o)
 .debug_info    0x00007e52      0x859 ../../../../../ports/arm-cortex/vanilla/gnu/spy\libqf_cortex-m3.a(qf_tick.o)
 .debug_info    0x000086ab      0x532 ../../../../../ports/arm-cortex/vanilla/gnu/spy\libqf_cortex-m3.a(qmp_get.o)
 .debug_info    0x00008bdd      0x4f2 ../../../../../ports/arm-cortex/vanilla/gnu/spy\libqf_cortex-m3.a(qmp_init.o)
 .debug_info    0x000090cf      0x6cc ../../../../../ports/arm-cortex/vanilla/gnu/spy\libqf_cortex-m3.a(qte_ctor.o)
 .debug_info    0x0000979b      0x888 ../../../../../ports/arm-cortex/vanilla/gnu/spy\libqf_cortex-m3.a(qte_arm.o)
 .debug_info    0x0000a023      0x83f ../../../../../ports/arm-cortex/vanilla/gnu/spy\libqf_cortex-m3.a(qvanilla.o)
 .debug_info    0x0000a862      0x92a ../../../../../ports/arm-cortex/vanilla/gnu/spy\libqf_cortex-m3.a(qa_get_.o)
 .debug_info    0x0000b18c      0x471 ../../../../../ports/arm-cortex/vanilla/gnu/spy\libqf_cortex-m3.a(qeq_init.o)
 .debug_info    0x0000b5fd      0x4d0 ../../../../../ports/arm-cortex/vanilla/gnu/spy\libqf_cortex-m3.a(qf_gc.o)
 .debug_info    0x0000bacd       0xf1 ../../../../../ports/arm-cortex/vanilla/gnu/spy\libqf_cortex-m3.a(qf_log2.o)
 .debug_info    0x0000bbbe      0x496 ../../../../../ports/arm-cortex/vanilla/gnu/spy\libqf_cortex-m3.a(qmp_put.o)
 .debug_info    0x0000c054      0x5cf ../../../../../ports/arm-cortex/vanilla/gnu/spy\libqep_cortex-m3.a(qhsm_ini.o)
 .debug_info    0x0000c623      0x495 ../../../../../ports/arm-cortex/vanilla/gnu/spy\libqep_cortex-m3.a(qhsm_dis.o)
 .debug_info    0x0000cab8      0x193 ../../../../../ports/arm-cortex/vanilla/gnu/spy\libqep_cortex-m3.a(qhsm_top.o)
 .debug_info    0x0000cc4b      0x1cc ../../../../../ports/arm-cortex/vanilla/gnu/spy\libqep_cortex-m3.a(qep.o)
 .debug_info    0x0000ce17      0x451 ../../../../../ports/arm-cortex/vanilla/gnu/spy\libqs_cortex-m3.a(qs.o)
 .debug_info    0x0000d268      0x3ab ../../../../../ports/arm-cortex/vanilla/gnu/spy\libqs_cortex-m3.a(qs_.o)
 .debug_info    0x0000d613      0x1e1 ../../../../../ports/arm-cortex/vanilla/gnu/spy\libqs_cortex-m3.a(qs_blk.o)
 .debug_info    0x0000d7f4      0x255 ../../../../../ports/arm-cortex/vanilla/gnu/spy\libqs_cortex-m3.a(qs_str.o)

.debug_line     0x00000000     0x32c2
 .debug_line    0x00000000      0x247 spy/display96x16x1.o
 .debug_line    0x00000247       0x73 spy/startup_lm3s.o
 .debug_line    0x000002ba      0x113 spy/core_cm3.o
 .debug_line    0x000003cd      0x1e0 spy/system_lm3s.o
 .debug_line    0x000005ad      0x21f spy/bsp.o
 .debug_line    0x000007cc      0x135 spy/main.o
 .debug_line    0x00000901       0x90 spy/mini_cpp.o
 .debug_line    0x00000991       0xaf spy/no_heap.o
 .debug_line    0x00000a40      0x254 spy/philo.o
 .debug_line    0x00000c94      0x224 spy/table.o
 .debug_line    0x00000eb8      0x175 ../../../../../ports/arm-cortex/vanilla/gnu/spy\libqf_cortex-m3.a(qa_fifo.o)
 .debug_line    0x0000102d      0x15f ../../../../../ports/arm-cortex/vanilla/gnu/spy\libqf_cortex-m3.a(qa_sub.o)
 .debug_line    0x0000118c      0x16a ../../../../../ports/arm-cortex/vanilla/gnu/spy\libqf_cortex-m3.a(qf_act.o)
 .debug_line    0x000012f6      0x16e ../../../../../ports/arm-cortex/vanilla/gnu/spy\libqf_cortex-m3.a(qf_new.o)
 .debug_line    0x00001464      0x101 ../../../../../ports/arm-cortex/vanilla/gnu/spy\libqf_cortex-m3.a(qf_pool.o)
 .debug_line    0x00001565       0xe4 ../../../../../ports/arm-cortex/vanilla/gnu/spy\libqf_cortex-m3.a(qf_psini.o)
 .debug_line    0x00001649      0x16b ../../../../../ports/arm-cortex/vanilla/gnu/spy\libqf_cortex-m3.a(qf_pspub.o)
 .debug_line    0x000017b4       0x5e ../../../../../ports/arm-cortex/vanilla/gnu/spy\libqf_cortex-m3.a(qf_pwr2.o)
 .debug_line    0x00001812      0x1a1 ../../../../../ports/arm-cortex/vanilla/gnu/spy\libqf_cortex-m3.a(qf_tick.o)
 .debug_line    0x000019b3      0x15d ../../../../../ports/arm-cortex/vanilla/gnu/spy\libqf_cortex-m3.a(qmp_get.o)
 .debug_line    0x00001b10      0x16a ../../../../../ports/arm-cortex/vanilla/gnu/spy\libqf_cortex-m3.a(qmp_init.o)
 .debug_line    0x00001c7a      0x103 ../../../../../ports/arm-cortex/vanilla/gnu/spy\libqf_cortex-m3.a(qte_ctor.o)
 .debug_line    0x00001d7d      0x146 ../../../../../ports/arm-cortex/vanilla/gnu/spy\libqf_cortex-m3.a(qte_arm.o)
 .debug_line    0x00001ec3      0x144 ../../../../../ports/arm-cortex/vanilla/gnu/spy\libqf_cortex-m3.a(qvanilla.o)
 .debug_line    0x00002007      0x1aa ../../../../../ports/arm-cortex/vanilla/gnu/spy\libqf_cortex-m3.a(qa_get_.o)
 .debug_line    0x000021b1      0x11e ../../../../../ports/arm-cortex/vanilla/gnu/spy\libqf_cortex-m3.a(qeq_init.o)
 .debug_line    0x000022cf      0x15d ../../../../../ports/arm-cortex/vanilla/gnu/spy\libqf_cortex-m3.a(qf_gc.o)
 .debug_line    0x0000242c       0x5e ../../../../../ports/arm-cortex/vanilla/gnu/spy\libqf_cortex-m3.a(qf_log2.o)
 .debug_line    0x0000248a      0x151 ../../../../../ports/arm-cortex/vanilla/gnu/spy\libqf_cortex-m3.a(qmp_put.o)
 .debug_line    0x000025db      0x1b8 ../../../../../ports/arm-cortex/vanilla/gnu/spy\libqep_cortex-m3.a(qhsm_ini.o)
 .debug_line    0x00002793      0x370 ../../../../../ports/arm-cortex/vanilla/gnu/spy\libqep_cortex-m3.a(qhsm_dis.o)
 .debug_line    0x00002b03       0xec ../../../../../ports/arm-cortex/vanilla/gnu/spy\libqep_cortex-m3.a(qhsm_top.o)
 .debug_line    0x00002bef      0x10e ../../../../../ports/arm-cortex/vanilla/gnu/spy\libqep_cortex-m3.a(qep.o)
 .debug_line    0x00002cfd      0x207 ../../../../../ports/arm-cortex/vanilla/gnu/spy\libqs_cortex-m3.a(qs.o)
 .debug_line    0x00002f04      0x194 ../../../../../ports/arm-cortex/vanilla/gnu/spy\libqs_cortex-m3.a(qs_.o)
 .debug_line    0x00003098      0x10b ../../../../../ports/arm-cortex/vanilla/gnu/spy\libqs_cortex-m3.a(qs_blk.o)
 .debug_line    0x000031a3      0x11f ../../../../../ports/arm-cortex/vanilla/gnu/spy\libqs_cortex-m3.a(qs_str.o)

.debug_loc      0x00000000     0x26a6
 .debug_loc     0x00000000      0x392 spy/display96x16x1.o
 .debug_loc     0x00000392       0x5e spy/startup_lm3s.o
 .debug_loc     0x000003f0      0x298 spy/core_cm3.o
 .debug_loc     0x00000688      0x156 spy/system_lm3s.o
 .debug_loc     0x000007de      0x2b8 spy/bsp.o
 .debug_loc     0x00000a96       0x4b spy/main.o
 .debug_loc     0x00000ae1       0x66 spy/mini_cpp.o
 .debug_loc     0x00000b47       0x60 spy/no_heap.o
 .debug_loc     0x00000ba7      0x562 spy/philo.o
 .debug_loc     0x00001109      0x337 spy/table.o
 .debug_loc     0x00001440       0xbc ../../../../../ports/arm-cortex/vanilla/gnu/spy\libqf_cortex-m3.a(qa_fifo.o)
 .debug_loc     0x000014fc       0x51 ../../../../../ports/arm-cortex/vanilla/gnu/spy\libqf_cortex-m3.a(qa_sub.o)
 .debug_loc     0x0000154d       0x7c ../../../../../ports/arm-cortex/vanilla/gnu/spy\libqf_cortex-m3.a(qf_act.o)
 .debug_loc     0x000015c9       0xe8 ../../../../../ports/arm-cortex/vanilla/gnu/spy\libqf_cortex-m3.a(qf_new.o)
 .debug_loc     0x000016b1       0x6f ../../../../../ports/arm-cortex/vanilla/gnu/spy\libqf_cortex-m3.a(qf_pool.o)
 .debug_loc     0x00001720       0xb5 ../../../../../ports/arm-cortex/vanilla/gnu/spy\libqf_cortex-m3.a(qf_pspub.o)
 .debug_loc     0x000017d5       0x4a ../../../../../ports/arm-cortex/vanilla/gnu/spy\libqf_cortex-m3.a(qf_tick.o)
 .debug_loc     0x0000181f       0x9c ../../../../../ports/arm-cortex/vanilla/gnu/spy\libqf_cortex-m3.a(qmp_get.o)
 .debug_loc     0x000018bb      0x12f ../../../../../ports/arm-cortex/vanilla/gnu/spy\libqf_cortex-m3.a(qmp_init.o)
 .debug_loc     0x000019ea       0x51 ../../../../../ports/arm-cortex/vanilla/gnu/spy\libqf_cortex-m3.a(qte_ctor.o)
 .debug_loc     0x00001a3b       0x6f ../../../../../ports/arm-cortex/vanilla/gnu/spy\libqf_cortex-m3.a(qte_arm.o)
 .debug_loc     0x00001aaa      0x16d ../../../../../ports/arm-cortex/vanilla/gnu/spy\libqf_cortex-m3.a(qvanilla.o)
 .debug_loc     0x00001c17       0xc6 ../../../../../ports/arm-cortex/vanilla/gnu/spy\libqf_cortex-m3.a(qa_get_.o)
 .debug_loc     0x00001cdd       0x64 ../../../../../ports/arm-cortex/vanilla/gnu/spy\libqf_cortex-m3.a(qeq_init.o)
 .debug_loc     0x00001d41       0x51 ../../../../../ports/arm-cortex/vanilla/gnu/spy\libqf_cortex-m3.a(qf_gc.o)
 .debug_loc     0x00001d92       0x5c ../../../../../ports/arm-cortex/vanilla/gnu/spy\libqf_cortex-m3.a(qmp_put.o)
 .debug_loc     0x00001dee       0xf0 ../../../../../ports/arm-cortex/vanilla/gnu/spy\libqep_cortex-m3.a(qhsm_ini.o)
 .debug_loc     0x00001ede      0x38b ../../../../../ports/arm-cortex/vanilla/gnu/spy\libqep_cortex-m3.a(qhsm_dis.o)
 .debug_loc     0x00002269      0x1ad ../../../../../ports/arm-cortex/vanilla/gnu/spy\libqs_cortex-m3.a(qs.o)
 .debug_loc     0x00002416      0x173 ../../../../../ports/arm-cortex/vanilla/gnu/spy\libqs_cortex-m3.a(qs_.o)
 .debug_loc     0x00002589       0x99 ../../../../../ports/arm-cortex/vanilla/gnu/spy\libqs_cortex-m3.a(qs_blk.o)
 .debug_loc     0x00002622       0x84 ../../../../../ports/arm-cortex/vanilla/gnu/spy\libqs_cortex-m3.a(qs_str.o)

.debug_pubnames
                0x00000000      0xcb1
 .debug_pubnames
                0x00000000       0xc3 spy/display96x16x1.o
 .debug_pubnames
                0x000000c3       0x54 spy/startup_lm3s.o
 .debug_pubnames
                0x00000117      0x159 spy/core_cm3.o
 .debug_pubnames
                0x00000270       0x35 spy/system_lm3s.o
 .debug_pubnames
                0x000002a5      0x12b spy/bsp.o
 .debug_pubnames
                0x000003d0       0x1b spy/main.o
 .debug_pubnames
                0x000003eb       0x59 spy/mini_cpp.o
 .debug_pubnames
                0x00000444       0x31 spy/no_heap.o
 .debug_pubnames
                0x00000475       0xcb spy/philo.o
 .debug_pubnames
                0x00000540       0xa6 spy/table.o
 .debug_pubnames
                0x000005e6       0x28 ../../../../../ports/arm-cortex/vanilla/gnu/spy\libqf_cortex-m3.a(qa_fifo.o)
 .debug_pubnames
                0x0000060e       0x29 ../../../../../ports/arm-cortex/vanilla/gnu/spy\libqf_cortex-m3.a(qa_sub.o)
 .debug_pubnames
                0x00000637       0x66 ../../../../../ports/arm-cortex/vanilla/gnu/spy\libqf_cortex-m3.a(qf_act.o)
 .debug_pubnames
                0x0000069d       0x1f ../../../../../ports/arm-cortex/vanilla/gnu/spy\libqf_cortex-m3.a(qf_new.o)
 .debug_pubnames
                0x000006bc       0x40 ../../../../../ports/arm-cortex/vanilla/gnu/spy\libqf_cortex-m3.a(qf_pool.o)
 .debug_pubnames
                0x000006fc       0x46 ../../../../../ports/arm-cortex/vanilla/gnu/spy\libqf_cortex-m3.a(qf_psini.o)
 .debug_pubnames
                0x00000742       0x22 ../../../../../ports/arm-cortex/vanilla/gnu/spy\libqf_cortex-m3.a(qf_pspub.o)
 .debug_pubnames
                0x00000764       0x45 ../../../../../ports/arm-cortex/vanilla/gnu/spy\libqf_cortex-m3.a(qf_pwr2.o)
 .debug_pubnames
                0x000007a9       0x1f ../../../../../ports/arm-cortex/vanilla/gnu/spy\libqf_cortex-m3.a(qf_tick.o)
 .debug_pubnames
                0x000007c8       0x38 ../../../../../ports/arm-cortex/vanilla/gnu/spy\libqf_cortex-m3.a(qmp_get.o)
 .debug_pubnames
                0x00000800       0x23 ../../../../../ports/arm-cortex/vanilla/gnu/spy\libqf_cortex-m3.a(qmp_init.o)
 .debug_pubnames
                0x00000823       0x29 ../../../../../ports/arm-cortex/vanilla/gnu/spy\libqf_cortex-m3.a(qte_ctor.o)
 .debug_pubnames
                0x0000084c       0x3d ../../../../../ports/arm-cortex/vanilla/gnu/spy\libqf_cortex-m3.a(qte_arm.o)
 .debug_pubnames
                0x00000889       0x85 ../../../../../ports/arm-cortex/vanilla/gnu/spy\libqf_cortex-m3.a(qvanilla.o)
 .debug_pubnames
                0x0000090e       0x3b ../../../../../ports/arm-cortex/vanilla/gnu/spy\libqf_cortex-m3.a(qa_get_.o)
 .debug_pubnames
                0x00000949       0x24 ../../../../../ports/arm-cortex/vanilla/gnu/spy\libqf_cortex-m3.a(qeq_init.o)
 .debug_pubnames
                0x0000096d       0x1d ../../../../../ports/arm-cortex/vanilla/gnu/spy\libqf_cortex-m3.a(qf_gc.o)
 .debug_pubnames
                0x0000098a       0x22 ../../../../../ports/arm-cortex/vanilla/gnu/spy\libqf_cortex-m3.a(qf_log2.o)
 .debug_pubnames
                0x000009ac       0x22 ../../../../../ports/arm-cortex/vanilla/gnu/spy\libqf_cortex-m3.a(qmp_put.o)
 .debug_pubnames
                0x000009ce       0x41 ../../../../../ports/arm-cortex/vanilla/gnu/spy\libqep_cortex-m3.a(qhsm_ini.o)
 .debug_pubnames
                0x00000a0f       0x25 ../../../../../ports/arm-cortex/vanilla/gnu/spy\libqep_cortex-m3.a(qhsm_dis.o)
 .debug_pubnames
                0x00000a34       0x20 ../../../../../ports/arm-cortex/vanilla/gnu/spy\libqep_cortex-m3.a(qhsm_top.o)
 .debug_pubnames
                0x00000a54       0x3b ../../../../../ports/arm-cortex/vanilla/gnu/spy\libqep_cortex-m3.a(qep.o)
 .debug_pubnames
                0x00000a8f      0x110 ../../../../../ports/arm-cortex/vanilla/gnu/spy\libqs_cortex-m3.a(qs.o)
 .debug_pubnames
                0x00000b9f       0xc1 ../../../../../ports/arm-cortex/vanilla/gnu/spy\libqs_cortex-m3.a(qs_.o)
 .debug_pubnames
                0x00000c60       0x23 ../../../../../ports/arm-cortex/vanilla/gnu/spy\libqs_cortex-m3.a(qs_blk.o)
 .debug_pubnames
                0x00000c83       0x2e ../../../../../ports/arm-cortex/vanilla/gnu/spy\libqs_cortex-m3.a(qs_str.o)

.debug_pubtypes
                0x00000000     0x1409
 .debug_pubtypes
                0x00000000       0x5d spy/display96x16x1.o
 .debug_pubtypes
                0x0000005d       0x3c spy/startup_lm3s.o
 .debug_pubtypes
                0x00000099       0x50 spy/core_cm3.o
 .debug_pubtypes
                0x000000e9       0x3b spy/system_lm3s.o
 .debug_pubtypes
                0x00000124      0x139 spy/bsp.o
 .debug_pubtypes
                0x0000025d       0xfc spy/main.o
 .debug_pubtypes
                0x00000359       0x1d spy/mini_cpp.o
 .debug_pubtypes
                0x00000376       0x1d spy/no_heap.o
 .debug_pubtypes
                0x00000393      0x124 spy/philo.o
 .debug_pubtypes
                0x000004b7       0xf4 spy/table.o
 .debug_pubtypes
                0x000005ab       0xc2 ../../../../../ports/arm-cortex/vanilla/gnu/spy\libqf_cortex-m3.a(qa_fifo.o)
 .debug_pubtypes
                0x0000066d       0xd0 ../../../../../ports/arm-cortex/vanilla/gnu/spy\libqf_cortex-m3.a(qa_sub.o)
 .debug_pubtypes
                0x0000073d       0xb2 ../../../../../ports/arm-cortex/vanilla/gnu/spy\libqf_cortex-m3.a(qf_act.o)
 .debug_pubtypes
                0x000007ef       0x8e ../../../../../ports/arm-cortex/vanilla/gnu/spy\libqf_cortex-m3.a(qf_new.o)
 .debug_pubtypes
                0x0000087d       0x76 ../../../../../ports/arm-cortex/vanilla/gnu/spy\libqf_cortex-m3.a(qf_pool.o)
 .debug_pubtypes
                0x000008f3       0x41 ../../../../../ports/arm-cortex/vanilla/gnu/spy\libqf_cortex-m3.a(qf_psini.o)
 .debug_pubtypes
                0x00000934       0xc2 ../../../../../ports/arm-cortex/vanilla/gnu/spy\libqf_cortex-m3.a(qf_pspub.o)
 .debug_pubtypes
                0x000009f6       0x12 ../../../../../ports/arm-cortex/vanilla/gnu/spy\libqf_cortex-m3.a(qf_pwr2.o)
 .debug_pubtypes
                0x00000a08       0xdc ../../../../../ports/arm-cortex/vanilla/gnu/spy\libqf_cortex-m3.a(qf_tick.o)
 .debug_pubtypes
                0x00000ae4       0x9d ../../../../../ports/arm-cortex/vanilla/gnu/spy\libqf_cortex-m3.a(qmp_get.o)
 .debug_pubtypes
                0x00000b81       0x96 ../../../../../ports/arm-cortex/vanilla/gnu/spy\libqf_cortex-m3.a(qmp_init.o)
 .debug_pubtypes
                0x00000c17       0xc5 ../../../../../ports/arm-cortex/vanilla/gnu/spy\libqf_cortex-m3.a(qte_ctor.o)
 .debug_pubtypes
                0x00000cdc       0xea ../../../../../ports/arm-cortex/vanilla/gnu/spy\libqf_cortex-m3.a(qte_arm.o)
 .debug_pubtypes
                0x00000dc6       0xb9 ../../../../../ports/arm-cortex/vanilla/gnu/spy\libqf_cortex-m3.a(qvanilla.o)
 .debug_pubtypes
                0x00000e7f       0xc9 ../../../../../ports/arm-cortex/vanilla/gnu/spy\libqf_cortex-m3.a(qa_get_.o)
 .debug_pubtypes
                0x00000f48       0x6d ../../../../../ports/arm-cortex/vanilla/gnu/spy\libqf_cortex-m3.a(qeq_init.o)
 .debug_pubtypes
                0x00000fb5       0x8e ../../../../../ports/arm-cortex/vanilla/gnu/spy\libqf_cortex-m3.a(qf_gc.o)
 .debug_pubtypes
                0x00001043       0x12 ../../../../../ports/arm-cortex/vanilla/gnu/spy\libqf_cortex-m3.a(qf_log2.o)
 .debug_pubtypes
                0x00001055       0x96 ../../../../../ports/arm-cortex/vanilla/gnu/spy\libqf_cortex-m3.a(qmp_put.o)
 .debug_pubtypes
                0x000010eb       0xae ../../../../../ports/arm-cortex/vanilla/gnu/spy\libqep_cortex-m3.a(qhsm_ini.o)
 .debug_pubtypes
                0x00001199       0xa5 ../../../../../ports/arm-cortex/vanilla/gnu/spy\libqep_cortex-m3.a(qhsm_dis.o)
 .debug_pubtypes
                0x0000123e       0x49 ../../../../../ports/arm-cortex/vanilla/gnu/spy\libqep_cortex-m3.a(qhsm_top.o)
 .debug_pubtypes
                0x00001287       0x5f ../../../../../ports/arm-cortex/vanilla/gnu/spy\libqep_cortex-m3.a(qep.o)
 .debug_pubtypes
                0x000012e6       0x49 ../../../../../ports/arm-cortex/vanilla/gnu/spy\libqs_cortex-m3.a(qs.o)
 .debug_pubtypes
                0x0000132f       0x57 ../../../../../ports/arm-cortex/vanilla/gnu/spy\libqs_cortex-m3.a(qs_.o)
 .debug_pubtypes
                0x00001386       0x3c ../../../../../ports/arm-cortex/vanilla/gnu/spy\libqs_cortex-m3.a(qs_blk.o)
 .debug_pubtypes
                0x000013c2       0x47 ../../../../../ports/arm-cortex/vanilla/gnu/spy\libqs_cortex-m3.a(qs_str.o)

.debug_aranges  0x00000000      0x4a0
 .debug_aranges
                0x00000000       0x20 spy/display96x16x1.o
 .debug_aranges
                0x00000020       0x20 spy/startup_lm3s.o
 .debug_aranges
                0x00000040       0x20 spy/core_cm3.o
 .debug_aranges
                0x00000060       0x20 spy/system_lm3s.o
 .debug_aranges
                0x00000080       0x20 spy/bsp.o
 .debug_aranges
                0x000000a0       0x20 spy/main.o
 .debug_aranges
                0x000000c0       0x20 spy/mini_cpp.o
 .debug_aranges
                0x000000e0       0x20 spy/no_heap.o
 .debug_aranges
                0x00000100       0x40 spy/philo.o
 .debug_aranges
                0x00000140       0x40 spy/table.o
 .debug_aranges
                0x00000180       0x20 ../../../../../ports/arm-cortex/vanilla/gnu/spy\libqf_cortex-m3.a(qa_fifo.o)
 .debug_aranges
                0x000001a0       0x20 ../../../../../ports/arm-cortex/vanilla/gnu/spy\libqf_cortex-m3.a(qa_sub.o)
 .debug_aranges
                0x000001c0       0x20 ../../../../../ports/arm-cortex/vanilla/gnu/spy\libqf_cortex-m3.a(qf_act.o)
 .debug_aranges
                0x000001e0       0x20 ../../../../../ports/arm-cortex/vanilla/gnu/spy\libqf_cortex-m3.a(qf_new.o)
 .debug_aranges
                0x00000200       0x20 ../../../../../ports/arm-cortex/vanilla/gnu/spy\libqf_cortex-m3.a(qf_pool.o)
 .debug_aranges
                0x00000220       0x20 ../../../../../ports/arm-cortex/vanilla/gnu/spy\libqf_cortex-m3.a(qf_psini.o)
 .debug_aranges
                0x00000240       0x20 ../../../../../ports/arm-cortex/vanilla/gnu/spy\libqf_cortex-m3.a(qf_pspub.o)
 .debug_aranges
                0x00000260       0x20 ../../../../../ports/arm-cortex/vanilla/gnu/spy\libqf_cortex-m3.a(qf_tick.o)
 .debug_aranges
                0x00000280       0x20 ../../../../../ports/arm-cortex/vanilla/gnu/spy\libqf_cortex-m3.a(qmp_get.o)
 .debug_aranges
                0x000002a0       0x20 ../../../../../ports/arm-cortex/vanilla/gnu/spy\libqf_cortex-m3.a(qmp_init.o)
 .debug_aranges
                0x000002c0       0x20 ../../../../../ports/arm-cortex/vanilla/gnu/spy\libqf_cortex-m3.a(qte_ctor.o)
 .debug_aranges
                0x000002e0       0x20 ../../../../../ports/arm-cortex/vanilla/gnu/spy\libqf_cortex-m3.a(qte_arm.o)
 .debug_aranges
                0x00000300       0x20 ../../../../../ports/arm-cortex/vanilla/gnu/spy\libqf_cortex-m3.a(qvanilla.o)
 .debug_aranges
                0x00000320       0x20 ../../../../../ports/arm-cortex/vanilla/gnu/spy\libqf_cortex-m3.a(qa_get_.o)
 .debug_aranges
                0x00000340       0x20 ../../../../../ports/arm-cortex/vanilla/gnu/spy\libqf_cortex-m3.a(qeq_init.o)
 .debug_aranges
                0x00000360       0x20 ../../../../../ports/arm-cortex/vanilla/gnu/spy\libqf_cortex-m3.a(qf_gc.o)
 .debug_aranges
                0x00000380       0x20 ../../../../../ports/arm-cortex/vanilla/gnu/spy\libqf_cortex-m3.a(qmp_put.o)
 .debug_aranges
                0x000003a0       0x20 ../../../../../ports/arm-cortex/vanilla/gnu/spy\libqep_cortex-m3.a(qhsm_ini.o)
 .debug_aranges
                0x000003c0       0x20 ../../../../../ports/arm-cortex/vanilla/gnu/spy\libqep_cortex-m3.a(qhsm_dis.o)
 .debug_aranges
                0x000003e0       0x20 ../../../../../ports/arm-cortex/vanilla/gnu/spy\libqep_cortex-m3.a(qhsm_top.o)
 .debug_aranges
                0x00000400       0x20 ../../../../../ports/arm-cortex/vanilla/gnu/spy\libqep_cortex-m3.a(qep.o)
 .debug_aranges
                0x00000420       0x20 ../../../../../ports/arm-cortex/vanilla/gnu/spy\libqs_cortex-m3.a(qs.o)
 .debug_aranges
                0x00000440       0x20 ../../../../../ports/arm-cortex/vanilla/gnu/spy\libqs_cortex-m3.a(qs_.o)
 .debug_aranges
                0x00000460       0x20 ../../../../../ports/arm-cortex/vanilla/gnu/spy\libqs_cortex-m3.a(qs_blk.o)
 .debug_aranges
                0x00000480       0x20 ../../../../../ports/arm-cortex/vanilla/gnu/spy\libqs_cortex-m3.a(qs_str.o)

.debug_str      0x00000000     0x246f
 .debug_str     0x00000000      0x3aa spy/display96x16x1.o
                                0x43d (size before relaxing)
 .debug_str     0x000003aa       0xda spy/startup_lm3s.o
                                0x13a (size before relaxing)
 .debug_str     0x00000484      0x153 spy/core_cm3.o
                                0x245 (size before relaxing)
 .debug_str     0x000005d7       0x49 spy/system_lm3s.o
                                0x241 (size before relaxing)
 .debug_str     0x00000620      0xe3b spy/bsp.o
                               0x10d9 (size before relaxing)
 .debug_str     0x0000145b       0xd0 spy/main.o
                                0x9d5 (size before relaxing)
 .debug_str     0x0000152b       0x67 spy/mini_cpp.o
                                 0xdf (size before relaxing)
 .debug_str     0x00001592       0x1a spy/no_heap.o
                                0x14a (size before relaxing)
 .debug_str     0x000015ac      0x2a8 spy/philo.o
                                0xc36 (size before relaxing)
 .debug_str     0x00001854       0x99 spy/table.o
                                0xa86 (size before relaxing)
 .debug_str     0x000018ed      0x18d ../../../../../ports/arm-cortex/vanilla/gnu/spy\libqf_cortex-m3.a(qa_fifo.o)
                                0xa0c (size before relaxing)
 .debug_str     0x00001a7a       0x3e ../../../../../ports/arm-cortex/vanilla/gnu/spy\libqf_cortex-m3.a(qa_sub.o)
                                0x936 (size before relaxing)
 .debug_str     0x00001ab8       0xa6 ../../../../../ports/arm-cortex/vanilla/gnu/spy\libqf_cortex-m3.a(qf_act.o)
                                0x948 (size before relaxing)
 .debug_str     0x00001b5e       0xf1 ../../../../../ports/arm-cortex/vanilla/gnu/spy\libqf_cortex-m3.a(qf_new.o)
                                0x716 (size before relaxing)
 .debug_str     0x00001c4f       0x5c ../../../../../ports/arm-cortex/vanilla/gnu/spy\libqf_cortex-m3.a(qf_pool.o)
                                0x263 (size before relaxing)
 .debug_str     0x00001cab       0x52 ../../../../../ports/arm-cortex/vanilla/gnu/spy\libqf_cortex-m3.a(qf_psini.o)
                                0x1a2 (size before relaxing)
 .debug_str     0x00001cfd       0x44 ../../../../../ports/arm-cortex/vanilla/gnu/spy\libqf_cortex-m3.a(qf_pspub.o)
                                0x916 (size before relaxing)
 .debug_str     0x00001d41       0x22 ../../../../../ports/arm-cortex/vanilla/gnu/spy\libqf_cortex-m3.a(qf_pwr2.o)
                                0x128 (size before relaxing)
 .debug_str     0x00001d63       0x49 ../../../../../ports/arm-cortex/vanilla/gnu/spy\libqf_cortex-m3.a(qf_tick.o)
                                0xa26 (size before relaxing)
 .debug_str     0x00001dac       0x61 ../../../../../ports/arm-cortex/vanilla/gnu/spy\libqf_cortex-m3.a(qmp_get.o)
                                0x741 (size before relaxing)
 .debug_str     0x00001e0d       0x30 ../../../../../ports/arm-cortex/vanilla/gnu/spy\libqf_cortex-m3.a(qmp_init.o)
                                0x721 (size before relaxing)
 .debug_str     0x00001e3d       0x23 ../../../../../ports/arm-cortex/vanilla/gnu/spy\libqf_cortex-m3.a(qte_ctor.o)
                                0x549 (size before relaxing)
 .debug_str     0x00001e60       0x22 ../../../../../ports/arm-cortex/vanilla/gnu/spy\libqf_cortex-m3.a(qte_arm.o)
                                0xa63 (size before relaxing)
 .debug_str     0x00001e82       0x85 ../../../../../ports/arm-cortex/vanilla/gnu/spy\libqf_cortex-m3.a(qvanilla.o)
                                0x5b2 (size before relaxing)
 .debug_str     0x00001f07       0x4a ../../../../../ports/arm-cortex/vanilla/gnu/spy\libqf_cortex-m3.a(qa_get_.o)
                                0xa40 (size before relaxing)
 .debug_str     0x00001f51       0x23 ../../../../../ports/arm-cortex/vanilla/gnu/spy\libqf_cortex-m3.a(qeq_init.o)
                                0x710 (size before relaxing)
 .debug_str     0x00001f74       0x34 ../../../../../ports/arm-cortex/vanilla/gnu/spy\libqf_cortex-m3.a(qf_gc.o)
                                0x708 (size before relaxing)
 .debug_str     0x00001fa8       0x22 ../../../../../ports/arm-cortex/vanilla/gnu/spy\libqf_cortex-m3.a(qf_log2.o)
                                0x128 (size before relaxing)
 .debug_str     0x00001fca       0x22 ../../../../../ports/arm-cortex/vanilla/gnu/spy\libqf_cortex-m3.a(qmp_put.o)
                                0x6f8 (size before relaxing)
 .debug_str     0x00001fec      0x109 ../../../../../ports/arm-cortex/vanilla/gnu/spy\libqep_cortex-m3.a(qhsm_ini.o)
                                0x779 (size before relaxing)
 .debug_str     0x000020f5       0x24 ../../../../../ports/arm-cortex/vanilla/gnu/spy\libqep_cortex-m3.a(qhsm_dis.o)
                                0x6ec (size before relaxing)
 .debug_str     0x00002119       0x24 ../../../../../ports/arm-cortex/vanilla/gnu/spy\libqep_cortex-m3.a(qhsm_top.o)
                                0x170 (size before relaxing)
 .debug_str     0x0000213d       0x35 ../../../../../ports/arm-cortex/vanilla/gnu/spy\libqep_cortex-m3.a(qep.o)
                                0x1e1 (size before relaxing)
 .debug_str     0x00002172      0x14c ../../../../../ports/arm-cortex/vanilla/gnu/spy\libqs_cortex-m3.a(qs.o)
                                0x277 (size before relaxing)
 .debug_str     0x000022be      0x121 ../../../../../ports/arm-cortex/vanilla/gnu/spy\libqs_cortex-m3.a(qs_.o)
                                0x27f (size before relaxing)
 .debug_str     0x000023df       0x45 ../../../../../ports/arm-cortex/vanilla/gnu/spy\libqs_cortex-m3.a(qs_blk.o)
                                0x18b (size before relaxing)
 .debug_str     0x00002424       0x4b ../../../../../ports/arm-cortex/vanilla/gnu/spy\libqs_cortex-m3.a(qs_str.o)
                                0x210 (size before relaxing)

.comment        0x00000000       0x25
 .comment       0x00000000       0x25 spy/display96x16x1.o
                                 0x26 (size before relaxing)
 .comment       0x00000000       0x26 spy/startup_lm3s.o
 .comment       0x00000000       0x26 spy/core_cm3.o
 .comment       0x00000000       0x26 spy/system_lm3s.o
 .comment       0x00000000       0x26 spy/bsp.o
 .comment       0x00000000       0x26 spy/main.o
 .comment       0x00000000       0x26 spy/mini_cpp.o
 .comment       0x00000000       0x26 spy/no_heap.o
 .comment       0x00000000       0x26 spy/philo.o
 .comment       0x00000000       0x26 spy/table.o
 .comment       0x00000000       0x26 ../../../../../ports/arm-cortex/vanilla/gnu/spy\libqf_cortex-m3.a(qa_fifo.o)
 .comment       0x00000000       0x26 ../../../../../ports/arm-cortex/vanilla/gnu/spy\libqf_cortex-m3.a(qa_sub.o)
 .comment       0x00000000       0x26 ../../../../../ports/arm-cortex/vanilla/gnu/spy\libqf_cortex-m3.a(qf_act.o)
 .comment       0x00000000       0x26 ../../../../../ports/arm-cortex/vanilla/gnu/spy\libqf_cortex-m3.a(qf_new.o)
 .comment       0x00000000       0x26 ../../../../../ports/arm-cortex/vanilla/gnu/spy\libqf_cortex-m3.a(qf_pool.o)
 .comment       0x00000000       0x26 ../../../../../ports/arm-cortex/vanilla/gnu/spy\libqf_cortex-m3.a(qf_psini.o)
 .comment       0x00000000       0x26 ../../../../../ports/arm-cortex/vanilla/gnu/spy\libqf_cortex-m3.a(qf_pspub.o)
 .comment       0x00000000       0x26 ../../../../../ports/arm-cortex/vanilla/gnu/spy\libqf_cortex-m3.a(qf_pwr2.o)
 .comment       0x00000000       0x26 ../../../../../ports/arm-cortex/vanilla/gnu/spy\libqf_cortex-m3.a(qf_tick.o)
 .comment       0x00000000       0x26 ../../../../../ports/arm-cortex/vanilla/gnu/spy\libqf_cortex-m3.a(qmp_get.o)
 .comment       0x00000000       0x26 ../../../../../ports/arm-cortex/vanilla/gnu/spy\libqf_cortex-m3.a(qmp_init.o)
 .comment       0x00000000       0x26 ../../../../../ports/arm-cortex/vanilla/gnu/spy\libqf_cortex-m3.a(qte_ctor.o)
 .comment       0x00000000       0x26 ../../../../../ports/arm-cortex/vanilla/gnu/spy\libqf_cortex-m3.a(qte_arm.o)
 .comment       0x00000000       0x26 ../../../../../ports/arm-cortex/vanilla/gnu/spy\libqf_cortex-m3.a(qvanilla.o)
 .comment       0x00000000       0x26 ../../../../../ports/arm-cortex/vanilla/gnu/spy\libqf_cortex-m3.a(qa_get_.o)
 .comment       0x00000000       0x26 ../../../../../ports/arm-cortex/vanilla/gnu/spy\libqf_cortex-m3.a(qeq_init.o)
 .comment       0x00000000       0x26 ../../../../../ports/arm-cortex/vanilla/gnu/spy\libqf_cortex-m3.a(qf_gc.o)
 .comment       0x00000000       0x26 ../../../../../ports/arm-cortex/vanilla/gnu/spy\libqf_cortex-m3.a(qf_log2.o)
 .comment       0x00000000       0x26 ../../../../../ports/arm-cortex/vanilla/gnu/spy\libqf_cortex-m3.a(qmp_put.o)
 .comment       0x00000000       0x26 ../../../../../ports/arm-cortex/vanilla/gnu/spy\libqep_cortex-m3.a(qhsm_ini.o)
 .comment       0x00000000       0x26 ../../../../../ports/arm-cortex/vanilla/gnu/spy\libqep_cortex-m3.a(qhsm_dis.o)
 .comment       0x00000000       0x26 ../../../../../ports/arm-cortex/vanilla/gnu/spy\libqep_cortex-m3.a(qhsm_top.o)
 .comment       0x00000000       0x26 ../../../../../ports/arm-cortex/vanilla/gnu/spy\libqep_cortex-m3.a(qep.o)
 .comment       0x00000000       0x26 ../../../../../ports/arm-cortex/vanilla/gnu/spy\libqs_cortex-m3.a(qs.o)
 .comment       0x00000000       0x26 ../../../../../ports/arm-cortex/vanilla/gnu/spy\libqs_cortex-m3.a(qs_.o)
 .comment       0x00000000       0x26 ../../../../../ports/arm-cortex/vanilla/gnu/spy\libqs_cortex-m3.a(qs_blk.o)
 .comment       0x00000000       0x26 ../../../../../ports/arm-cortex/vanilla/gnu/spy\libqs_cortex-m3.a(qs_str.o)

.ARM.attributes
                0x00000000       0x31
 .ARM.attributes
                0x00000000       0x31 spy/display96x16x1.o
 .ARM.attributes
                0x00000031       0x31 spy/startup_lm3s.o
 .ARM.attributes
                0x00000062       0x31 spy/core_cm3.o
 .ARM.attributes
                0x00000093       0x31 spy/system_lm3s.o
 .ARM.attributes
                0x000000c4       0x31 spy/bsp.o
 .ARM.attributes
                0x000000f5       0x31 spy/main.o
 .ARM.attributes
                0x00000126       0x31 spy/mini_cpp.o
 .ARM.attributes
                0x00000157       0x31 spy/no_heap.o
 .ARM.attributes
                0x00000188       0x31 spy/philo.o
 .ARM.attributes
                0x000001b9       0x31 spy/table.o
 .ARM.attributes
                0x000001ea       0x31 ../../../../../ports/arm-cortex/vanilla/gnu/spy\libqf_cortex-m3.a(qa_fifo.o)
 .ARM.attributes
                0x0000021b       0x31 ../../../../../ports/arm-cortex/vanilla/gnu/spy\libqf_cortex-m3.a(qa_sub.o)
 .ARM.attributes
                0x0000024c       0x31 ../../../../../ports/arm-cortex/vanilla/gnu/spy\libqf_cortex-m3.a(qf_act.o)
 .ARM.attributes
                0x0000027d       0x31 ../../../../../ports/arm-cortex/vanilla/gnu/spy\libqf_cortex-m3.a(qf_new.o)
 .ARM.attributes
                0x000002ae       0x31 ../../../../../ports/arm-cortex/vanilla/gnu/spy\libqf_cortex-m3.a(qf_pool.o)
 .ARM.attributes
                0x000002df       0x31 ../../../../../ports/arm-cortex/vanilla/gnu/spy\libqf_cortex-m3.a(qf_psini.o)
 .ARM.attributes
                0x00000310       0x31 ../../../../../ports/arm-cortex/vanilla/gnu/spy\libqf_cortex-m3.a(qf_pspub.o)
 .ARM.attributes
                0x00000341       0x31 ../../../../../ports/arm-cortex/vanilla/gnu/spy\libqf_cortex-m3.a(qf_pwr2.o)
 .ARM.attributes
                0x00000372       0x31 ../../../../../ports/arm-cortex/vanilla/gnu/spy\libqf_cortex-m3.a(qf_tick.o)
 .ARM.attributes
                0x000003a3       0x31 ../../../../../ports/arm-cortex/vanilla/gnu/spy\libqf_cortex-m3.a(qmp_get.o)
 .ARM.attributes
                0x000003d4       0x31 ../../../../../ports/arm-cortex/vanilla/gnu/spy\libqf_cortex-m3.a(qmp_init.o)
 .ARM.attributes
                0x00000405       0x31 ../../../../../ports/arm-cortex/vanilla/gnu/spy\libqf_cortex-m3.a(qte_ctor.o)
 .ARM.attributes
                0x00000436       0x31 ../../../../../ports/arm-cortex/vanilla/gnu/spy\libqf_cortex-m3.a(qte_arm.o)
 .ARM.attributes
                0x00000467       0x31 ../../../../../ports/arm-cortex/vanilla/gnu/spy\libqf_cortex-m3.a(qvanilla.o)
 .ARM.attributes
                0x00000498       0x31 ../../../../../ports/arm-cortex/vanilla/gnu/spy\libqf_cortex-m3.a(qa_get_.o)
 .ARM.attributes
                0x000004c9       0x31 ../../../../../ports/arm-cortex/vanilla/gnu/spy\libqf_cortex-m3.a(qeq_init.o)
 .ARM.attributes
                0x000004fa       0x31 ../../../../../ports/arm-cortex/vanilla/gnu/spy\libqf_cortex-m3.a(qf_gc.o)
 .ARM.attributes
                0x0000052b       0x31 ../../../../../ports/arm-cortex/vanilla/gnu/spy\libqf_cortex-m3.a(qf_log2.o)
 .ARM.attributes
                0x0000055c       0x31 ../../../../../ports/arm-cortex/vanilla/gnu/spy\libqf_cortex-m3.a(qmp_put.o)
 .ARM.attributes
                0x0000058d       0x31 ../../../../../ports/arm-cortex/vanilla/gnu/spy\libqep_cortex-m3.a(qhsm_ini.o)
 .ARM.attributes
                0x000005be       0x31 ../../../../../ports/arm-cortex/vanilla/gnu/spy\libqep_cortex-m3.a(qhsm_dis.o)
 .ARM.attributes
                0x000005ef       0x31 ../../../../../ports/arm-cortex/vanilla/gnu/spy\libqep_cortex-m3.a(qhsm_top.o)
 .ARM.attributes
                0x00000620       0x31 ../../../../../ports/arm-cortex/vanilla/gnu/spy\libqep_cortex-m3.a(qep.o)
 .ARM.attributes
                0x00000651       0x31 ../../../../../ports/arm-cortex/vanilla/gnu/spy\libqs_cortex-m3.a(qs.o)
 .ARM.attributes
                0x00000682       0x31 ../../../../../ports/arm-cortex/vanilla/gnu/spy\libqs_cortex-m3.a(qs_.o)
 .ARM.attributes
                0x000006b3       0x31 ../../../../../ports/arm-cortex/vanilla/gnu/spy\libqs_cortex-m3.a(qs_blk.o)
 .ARM.attributes
                0x000006e4       0x31 ../../../../../ports/arm-cortex/vanilla/gnu/spy\libqs_cortex-m3.a(qs_str.o)

.debug_frame    0x00000000      0xddc
 .debug_frame   0x00000000      0x148 spy/display96x16x1.o
 .debug_frame   0x00000148       0x58 spy/startup_lm3s.o
 .debug_frame   0x000001a0      0x170 spy/core_cm3.o
 .debug_frame   0x00000310       0x2c spy/system_lm3s.o
 .debug_frame   0x0000033c      0x144 spy/bsp.o
 .debug_frame   0x00000480       0x34 spy/main.o
 .debug_frame   0x000004b4       0x50 spy/mini_cpp.o
 .debug_frame   0x00000504       0x58 spy/no_heap.o
 .debug_frame   0x0000055c      0x128 spy/philo.o
 .debug_frame   0x00000684       0xd0 spy/table.o
 .debug_frame   0x00000754       0x2c ../../../../../ports/arm-cortex/vanilla/gnu/spy\libqf_cortex-m3.a(qa_fifo.o)
 .debug_frame   0x00000780       0x30 ../../../../../ports/arm-cortex/vanilla/gnu/spy\libqf_cortex-m3.a(qa_sub.o)
 .debug_frame   0x000007b0       0x58 ../../../../../ports/arm-cortex/vanilla/gnu/spy\libqf_cortex-m3.a(qf_act.o)
 .debug_frame   0x00000808       0x34 ../../../../../ports/arm-cortex/vanilla/gnu/spy\libqf_cortex-m3.a(qf_new.o)
 .debug_frame   0x0000083c       0x30 ../../../../../ports/arm-cortex/vanilla/gnu/spy\libqf_cortex-m3.a(qf_pool.o)
 .debug_frame   0x0000086c       0x20 ../../../../../ports/arm-cortex/vanilla/gnu/spy\libqf_cortex-m3.a(qf_psini.o)
 .debug_frame   0x0000088c       0x3c ../../../../../ports/arm-cortex/vanilla/gnu/spy\libqf_cortex-m3.a(qf_pspub.o)
 .debug_frame   0x000008c8       0x30 ../../../../../ports/arm-cortex/vanilla/gnu/spy\libqf_cortex-m3.a(qf_tick.o)
 .debug_frame   0x000008f8       0x44 ../../../../../ports/arm-cortex/vanilla/gnu/spy\libqf_cortex-m3.a(qmp_get.o)
 .debug_frame   0x0000093c       0x30 ../../../../../ports/arm-cortex/vanilla/gnu/spy\libqf_cortex-m3.a(qmp_init.o)
 .debug_frame   0x0000096c       0x2c ../../../../../ports/arm-cortex/vanilla/gnu/spy\libqf_cortex-m3.a(qte_ctor.o)
 .debug_frame   0x00000998       0x2c ../../../../../ports/arm-cortex/vanilla/gnu/spy\libqf_cortex-m3.a(qte_arm.o)
 .debug_frame   0x000009c4       0xa0 ../../../../../ports/arm-cortex/vanilla/gnu/spy\libqf_cortex-m3.a(qvanilla.o)
 .debug_frame   0x00000a64       0x44 ../../../../../ports/arm-cortex/vanilla/gnu/spy\libqf_cortex-m3.a(qa_get_.o)
 .debug_frame   0x00000aa8       0x2c ../../../../../ports/arm-cortex/vanilla/gnu/spy\libqf_cortex-m3.a(qeq_init.o)
 .debug_frame   0x00000ad4       0x2c ../../../../../ports/arm-cortex/vanilla/gnu/spy\libqf_cortex-m3.a(qf_gc.o)
 .debug_frame   0x00000b00       0x2c ../../../../../ports/arm-cortex/vanilla/gnu/spy\libqf_cortex-m3.a(qmp_put.o)
 .debug_frame   0x00000b2c       0x64 ../../../../../ports/arm-cortex/vanilla/gnu/spy\libqep_cortex-m3.a(qhsm_ini.o)
 .debug_frame   0x00000b90       0x3c ../../../../../ports/arm-cortex/vanilla/gnu/spy\libqep_cortex-m3.a(qhsm_dis.o)
 .debug_frame   0x00000bcc       0x20 ../../../../../ports/arm-cortex/vanilla/gnu/spy\libqep_cortex-m3.a(qhsm_top.o)
 .debug_frame   0x00000bec       0x20 ../../../../../ports/arm-cortex/vanilla/gnu/spy\libqep_cortex-m3.a(qep.o)
 .debug_frame   0x00000c0c       0xc0 ../../../../../ports/arm-cortex/vanilla/gnu/spy\libqs_cortex-m3.a(qs.o)
 .debug_frame   0x00000ccc       0x98 ../../../../../ports/arm-cortex/vanilla/gnu/spy\libqs_cortex-m3.a(qs_.o)
 .debug_frame   0x00000d64       0x28 ../../../../../ports/arm-cortex/vanilla/gnu/spy\libqs_cortex-m3.a(qs_blk.o)
 .debug_frame   0x00000d8c       0x50 ../../../../../ports/arm-cortex/vanilla/gnu/spy\libqs_cortex-m3.a(qs_str.o)

.debug_ranges   0x00000000      0x150
 .debug_ranges  0x00000000       0x30 spy/philo.o
 .debug_ranges  0x00000030       0x30 spy/table.o
 .debug_ranges  0x00000060       0x18 ../../../../../ports/arm-cortex/vanilla/gnu/spy\libqf_cortex-m3.a(qa_fifo.o)
 .debug_ranges  0x00000078       0x18 ../../../../../ports/arm-cortex/vanilla/gnu/spy\libqf_cortex-m3.a(qf_new.o)
 .debug_ranges  0x00000090       0x18 ../../../../../ports/arm-cortex/vanilla/gnu/spy\libqf_cortex-m3.a(qf_pspub.o)
 .debug_ranges  0x000000a8       0x60 ../../../../../ports/arm-cortex/vanilla/gnu/spy\libqf_cortex-m3.a(qvanilla.o)
 .debug_ranges  0x00000108       0x18 ../../../../../ports/arm-cortex/vanilla/gnu/spy\libqf_cortex-m3.a(qa_get_.o)
 .debug_ranges  0x00000120       0x30 ../../../../../ports/arm-cortex/vanilla/gnu/spy\libqep_cortex-m3.a(qhsm_dis.o)
